Archive member included because of file (symbol)

c:/program files (x86)/microchip/mplab c30/bin/../lib\libdsp-coff.a(pid.obj)
                              MAIN.o (PIDInit)
c:/program files (x86)/microchip/mplab c30/bin/../lib\libpic30-coff.a(crt1.o)
                              (_resetALT)
c:/program files (x86)/microchip/mplab c30/bin/../lib\libpic30-coff.a(crt0.o)
                              (_resetPRI)
c:/program files (x86)/microchip/mplab c30/bin/../lib\libm-coff.a(floatsisf.o)
                              MAIN.o (__floatsisf)
c:/program files (x86)/microchip/mplab c30/bin/../lib\libm-coff.a(addsf3.o)
                              MAIN.o (__addsf3)
c:/program files (x86)/microchip/mplab c30/bin/../lib\libm-coff.a(mulsf3.o)
                              MAIN.o (__mulsf3)
c:/program files (x86)/microchip/mplab c30/bin/../lib\libm-coff.a(fixunssfsi.o)
                              MAIN.o (__fixunssfsi)
c:/program files (x86)/microchip/mplab c30/bin/../lib\libm-coff.a(udivsi3.o)
                              MAIN.o (__udivsi3)
c:/program files (x86)/microchip/mplab c30/bin/../lib\libm-coff.a(fpack.o)
                              c:/program files (x86)/microchip/mplab c30/bin/../lib\libm-coff.a(floatsisf.o) (_fpack)
c:/program files (x86)/microchip/mplab c30/bin/../lib\libm-coff.a(funpack2.o)
                              c:/program files (x86)/microchip/mplab c30/bin/../lib\libm-coff.a(addsf3.o) (_funpack2)
c:/program files (x86)/microchip/mplab c30/bin/../lib\libm-coff.a(futil.o)
                              c:/program files (x86)/microchip/mplab c30/bin/../lib\libm-coff.a(addsf3.o) (_fPropagateNaN)
c:/program files (x86)/microchip/mplab c30/bin/../lib\libm-coff.a(funpack.o)
                              c:/program files (x86)/microchip/mplab c30/bin/../lib\libm-coff.a(fixunssfsi.o) (_funpack)


Selected CodeGuard Options:
  FGS:GSS:GSS_STD
  FGS:GCP:CODE_PROT_ON

CodeGuard FLASH Memory:
  boot    (none)
  secure  (none)
  general 0x100 to 0x17ffe

CodeGuard RAM Memory:
  general 0x800 to 0x279f
  secure  (none)
  boot    (none)

CodeGuard EEPROM Memory:
  general 0x7ff000 to 0x7fffff
  secure  (none)
  boot    (none)


Program Memory Usage

section                    address   length (PC units)   length (bytes) (dec)
-------                    -------   -----------------   --------------------
.reset                           0                 0x4             0x6  (6)
.ivt                           0x4                0x7c            0xba  (186)
.aivt                         0x84                0x7c            0xba  (186)
.text                        0x100              0x735e          0xad0d  (44301)
.dinit                      0xe61c               0x7fa           0xbf7  (3063)
.isr                        0xee16                 0x2             0x3  (3)
.const                     0x10000              0x71be          0xaa9d  (43677)
__FOSC                    0xf80000                 0x2             0x3  (3)
__FWDT                    0xf80002                 0x2             0x3  (3)
__FBORPOR                 0xf80004                 0x2             0x3  (3)
__FGS                     0xf8000a                 0x2             0x3  (3)

                     Total program memory used (bytes):        0x1652a  (91434) 62%


Data Memory Usage

section                    address      alignment gaps    total length  (dec)
-------                    -------      --------------    -------------------
.xbss                        0x800                   0             0x6  (6)
.nbss                        0x806                   0           0x588  (1416)
.data_0x1000                0x1000                   0             0x2  (2)
.data_0x1002                0x1002                   0             0x2  (2)
.data_0x1004                0x1004                   0             0x2  (2)
.data_0x1006                0x1006                   0             0x2  (2)
.data_0x1008                0x1008                   0             0x2  (2)
.data_0x100a                0x100a                   0             0x2  (2)
.data_0x100c                0x100c                   0             0x2  (2)
.data_0x1010                0x1010                   0             0x2  (2)
.data_0x1012                0x1012                   0             0x2  (2)
.ndata                      0x1014                   0           0xb64  (2916)
.ybss                       0x1ffa                   0             0x6  (6)

                        Total data memory used (bytes):         0x110a  (4362) 53%


Dynamic Memory Usage

region                     address                      maximum length  (dec)
------                     -------                      ---------------------
heap                             0                                   0  (0)
stack                       0x2000                               0x7a0  (1952)

                        Maximum dynamic memory (bytes):          0x7a0  (1952)


External Symbols in Data Memory (by address):

                    0x0800                  _abcCoefficient
                    0x0870                  _fooPID
                    0x087a                  _TypeDP
                    0x087b                  _TypeU
                    0x0880                  _parau
                    0x08f0                  _para_tempu
                    0x0960                  _pidParams1
                    0x09c4                  _pidParams2
                    0x0a28                  _pstowfstru
                    0x0a3f                  _psstatusu
                    0x0a40                  _commandu
                    0x0a41                  _erroru
                    0x0a43                  _wfstatusu
                    0x0a44                  _EEPROM_struct_mig
                    0x0a45                  _EEPROM_struct_pmig
                    0x0a46                  _arcontime
                    0x0a4c                  _diswin1
                    0x0a4f                  _diswin2
                    0x0a52                  _arr
                    0x0a5a                  _secondpulse1
                    0x0a5b                  _secondpulse2
                    0x0a5c                  _secondpulse3
                    0x0a5e                  _vtg_circular_arr
                    0x0a6e                  _kp2_prev
                    0x0a76                  _ki2_prev
                    0x0a7e                  _kd2_prev
                    0x0a86                  _kp1_prev
                    0x0a8e                  _ki1_prev
                    0x0a96                  _kd1_prev
                    0x0a9e                  _kpgamma2
                    0x0aa2                  _kigamma2
                    0x0aa6                  _kdgamma2
                    0x0aaa                  _Kiterm2
                    0x0aae                  _Kiterm1
                    0x0ab2                  _kpgamma1
                    0x0ab6                  _kigamma1
                    0x0aba                  _kdgamma1
                    0x0abe                  _scaled_val2
                    0x0ac0                  _pulsebase_trial
                    0x0ac2                  _rec_arr
                    0x0adc                  _low_base_amp
                    0x0ade                  _high_base_amp
                    0x0ae0                  _BVTGARR
                    0x0ae8                  _dispautovoltage
                    0x0aea                  _prevcreepspeedrate
                    0x0aec                  _flt
                    0x0aee                  _read_mhotstart
                    0x0af0                  _read_msetcurrent
                    0x0af2                  _read_marcforce
                    0x0af4                  _read_mmaterial
                    0x0af6                  _read_melectrodesize
                    0x0af8                  _read_melectrotype
                    0x0afa                  _read_tpreflow
                    0x0afc                  _read_tstartcurrent
                    0x0afe                  _read_tupslopetime
                    0x0b00                  _read_tsetcurrent
                    0x0b02                  _read_tendcurrent
                    0x0b04                  _read_tmaterial
                    0x0b06                  _read_tplatesize
                    0x0b08                  _read_gpreflow
                    0x0b0a                  _read_gsetvoltage
                    0x0b0c                  _read_gcratercurrent
                    0x0b0e                  _read_gcratervoltage
                    0x0b10                  _read_gburnback
                    0x0b12                  _read_gsetwspeed
                    0x0b14                  _read_gpostflow
                    0x0b16                  _read_gmaterial
                    0x0b18                  _read_gdiameter
                    0x0b1a                  _read_ggas
                    0x0b1c                  _read_inductance
                    0x0b1e                  _read_gcratervoltag
                    0x0b20                  _prev_eeprom_mig_struct
                    0x0b22                  _read_ppreflow
                    0x0b24                  _read_psetcurrent
                    0x0b26                  _read_psetvoltage
                    0x0b28                  _read_pcratercurrent
                    0x0b2a                  _read_pcratervoltage
                    0x0b2c                  _read_pburnback
                    0x0b2e                  _read_psetwspeed
                    0x0b30                  _read_pthickness
                    0x0b32                  _read_parclength
                    0x0b34                  _read_ppostflow
                    0x0b36                  _read_pmaterial
                    0x0b38                  _read_pdiameter
                    0x0b3a                  _read_pgas
                    0x0b3c                  _prev_eeprom_pmig_struct
                    0x0b3e                  _peakvtgarr
                    0x0b46                  _mpulsevtgarr
                    0x0b66                  _sf_setpoint
                    0x0b68                  _sf_feedback
                    0x0b6a                  _sf_error
                    0x0b6c                  _sf_preverror
                    0x0b6e                  _sf_pid
                    0x0b72                  _mult_factor
                    0x0b74                  _max_Pws
                    0x0b76                  _max_Gws
                    0x0b78                  _error4_flag
                    0x0b79                  _error_4_check4t
                    0x0b7a                  _er1
                    0x0b7c                  _er2
                    0x0b7e                  _er3
                    0x0b80                  _err11_delay_counter
                    0x0b82                  _dVal_press1
                    0x0b84                  _dVal_press0
                    0x0b86                  _cntsecond_er4
                    0x0b88                  _prev_arcontimehr
                    0x0b8a                  _prev_arcontimemin
                    0x0b8c                  _cEditfg
                    0x0b8d                  _cTestfg
                    0x0b8e                  _cWfVChangefg
                    0x0b8f                  _iCntChk
                    0x0b90                  _setPasswordfg
                    0x0b91                  _cPWstarblinkcnt
                    0x0b92                  _iTest1
                    0x0b94                  _iTest2
                    0x0b96                  _iSampleCnt
                    0x0b98                  _iRxwfVoltage
                    0x0b9a                  _cTestmmr
                    0x0b9c                  _ChkForAnotherfg
                    0x0b9d                  _ocvonfg
                    0x0b9e                  _Testfg
                    0x0b9f                  _WfEditfg
                    0x0ba0                  _iCalHiFreq
                    0x0ba2                  _iCalLowFreq
                    0x0ba4                  _cLoadFreqfg
                    0x0ba6                  _iLoadFreqCntr
                    0x0ba8                  _cLoadReffg
                    0x0baa                  _iLoadRefCntr
                    0x0bac                  _cTogglePinfg
                    0x0bae                  _iTwinSetVolt
                    0x0bb0                  _iTwinSetVolt2
                    0x0bb2                  _iTwinwirespeed
                    0x0bb4                  _fTwinwirespeed
                    0x0bb8                  _cLoadVoltfg
                    0x0bb9                  _cSoftStrfg
                    0x0bba                  _cSoftStrCnt
                    0x0bbb                  _cSoftDonefg
                    0x0bbc                  _cByte_cntr
                    0x0bbd                  _cSlave_addr
                    0x0bbe                  _cFunction_code
                    0x0bbf                  _cNo_of_byte
                    0x0bc0                  _cPort_addr
                    0x0bc1                  _String_received_fg
                    0x0bc2                  _cFrameStrfg
                    0x0bc3                  _cFrameFoundfg
                    0x0bc4                  _cChardlyStrfg
                    0x0bc5                  _cParaUpdatefg
                    0x0bc6                  _cCharDelay
                    0x0bc7                  _cReceive_buffer
                    0x0bef                  _Response_array
                    0x0c18                  _iCrc_querry_word
                    0x0c1a                  _sCRC_response_word
                    0x0c1c                  _iInput_reg_addr
                    0x0c1e                  _iPara_addr
                    0x0c20                  _iPara_update
                    0x0c22                  _iInput_data
                    0x0c24                  _cFrameSendfg
                    0x0c25                  _cEndPulsefg
                    0x0c26                  _cEndPulseCnt
                    0x0c28                  _ENPULSECURR
                    0x0c2a                  _iFbVoltage
                    0x0c2c                  _iFreqError
                    0x0c2e                  _cFreqErrorupdatefg
                    0x0c30                  _count_6ms
                    0x0c32                  _iWrAddr
                    0x0c34                  _ireadaddr
                    0x0c36                  _ireadmmry
                    0x0c38                  _cE2p
                    0x0c40                  _cReadmat
                    0x0c47                  _cGasdia
                    0x0c48                  _cUpKeyLongPressfg
                    0x0c49                  _cMemoryScannerfg
                    0x0c4a                  _ctogglefg
                    0x0c4b                  _cProgramupdatefg
                    0x0c4c                  _cUpdatenamefg
                    0x0c4e                  _isaveaddr
                    0x0c50                  _iPno
                    0x0c52                  _iReadPno
                    0x0c54                  _iReadpara
                    0x0ce4                  _iPulsepara
                    0x0cf8                  _iProgramLoadLoc
                    0x0cfa                  _iProgramStrLoc
                    0x0cfc                  _prevProgramStrLoc
                    0x0cfe                  _prevProgramLoadLoc
                    0x0d00                  _iFirstaddr
                    0x0d02                  _iSecondaddr
                    0x0d04                  _iUpKeyLongPresscnt
                    0x0d06                  _iProgramChkLoc
                    0x0d08                  _prevProgramChkLoc
                    0x0d0a                  _iProgupdateptr
                    0x0d0c                  _iProgRestoreLoc
                    0x0d0e                  _prevprogrestoreLoc
                    0x0d10                  _iCursorptr
                    0x0d12                  _iPnoChk
                    0x0d14                  _iArrayindex
                    0x0d16                  _prevarrayindex
                    0x0d18                  _iDiaindex
                    0x0d1a                  _prevdiaindex
                    0x0d1c                  _iGasindex
                    0x0d1e                  _prevgasindex
                    0x0d20                  _pulseptr
                    0x0d22                  _prevpulseptr
                    0x0d24                  _iPulseparachk
                    0x0d38                  _cProgramChk
                    0x0d3e                  _cGasdiachk
                    0x0d3f                  _cParachangeflag
                    0x0d40                  _cDnKeyLongPressfg
                    0x0d42                  _cDnKeyLongPresscnt
                    0x0d44                  _iThickChk
                    0x0d46                  _iMatChk
                    0x0d48                  _iGasChk
                    0x0d4a                  _iProgramNo
                    0x0d4c                  _iMigProgNo
                    0x0d4e                  _cWeldmode
                    0x0d4f                  _cMatarray
                    0x0d59                  _cGasDiaupdate
                    0x0d5a                  _cMatchFoundfg
                    0x0d5b                  _ctoggleflag
                    0x0d5c                  _cUpdatecursorfg
                    0x0d5d                  _cPMainMenufg
                    0x0d5e                  _iE2pData
                    0x0d60                  _cE2pData
                    0x0d62                  _iKeyDoubleChkCntr
                    0x0d64                  _count200Msec
                    0x0d66                  _iMacMenuCntr
                    0x0d67                  _cCursorPosition
                    0x0d68                  _cLineNo
                    0x0d69                  _cSerialPortTask
                    0x0d6a                  _cMacMenuNo
                    0x0d6b                  _cMacMenufg
                    0x0d6c                  _cKeyPressStartfg
                    0x0d6d                  _cMainScreenfg
                    0x0d6e                  _cCursorBlinkfg
                    0x0d6f                  _cCursorOnfg
                    0x0d70                  _c200Msecfg
                    0x0d71                  _cCursorOfffg
                    0x0d72                  _disp_data_arr
                    0x0d76                  _mmat
                    0x0d78                  _mdia
                    0x0d7a                  _melectrode
                    0x0d7c                  _mat
                    0x0d7e                  _dia
                    0x0d80                  _gas
                    0x0d82                  _tmat
                    0x0d84                  _tdia
                    0x0d86                  _tjoint
                    0x0d88                  _pmat
                    0x0d8a                  _pdia
                    0x0d8c                  _pgas
                    0x1000                  _iVoltage
                    0x1002                  _iWireSpeed
                    0x1004                  _iCurrent
                    0x1006                  _iDiaNo
                    0x1008                  _iGasNo
                    0x100a                  _iMatNo
                    0x100c                  _iArcLength
                    0x1010                  _iActualCurrent
                    0x1012                  _iActualVoltage
                    0x1014                  _kCoeffs
                    0x101a                  _tempkey
                    0x101b                  _temp
                    0x101c                  _ijk
                    0x101d                  _disdigit
                    0x101e                  _setdp
                    0x101f                  _firstpulse1
                    0x1020                  _plus111
                    0x1021                  _result
                    0x1022                  _minus111
                    0x1023                  _new1
                    0x1024                  _firstpulse2
                    0x1025                  _plus222
                    0x1026                  _minus222
                    0x1027                  _new2
                    0x1028                  _firstpulse3
                    0x1029                  _plus333
                    0x102a                  _minus333
                    0x102b                  _new3
                    0x102c                  _scan_count
                    0x102d                  _encod1
                    0x102e                  _encod2
                    0x102f                  _encod3
                    0x1030                  _old1
                    0x1031                  _old2
                    0x1032                  _old3
                    0x1033                  _col
                    0x1034                  _glcd_flag
                    0x1035                  _key
                    0x1036                  _ans
                    0x1037                  _Prevkey
                    0x1038                  _softstartf
                    0x1039                  _weldmodeoff
                    0x103a                  _setptimef
                    0x103b                  _setstimef
                    0x103c                  _openloopnew
                    0x103d                  _Aweldonf
                    0x103e                  _antistick_f
                    0x103f                  _keyrow
                    0x1040                  _keycolumn
                    0x1041                  _keypad
                    0x1042                  _weldingonf
                    0x1043                  _PULSEavgf
                    0x1044                  _adcreadf
                    0x1045                  _shortcktonf
                    0x1046                  _MIGweldon_detectf
                    0x1048                  _pulseweldonf
                    0x104a                  _twinpulsecnt
                    0x104c                  _weldwiredia
                    0x1054                  _power_delay
                    0x1056                  _i
                    0x1058                  _j
                    0x105a                  _k
                    0x105c                  _num1
                    0x105e                  _num2
                    0x1060                  _val
                    0x1062                  _CURRENT
                    0x1064                  _VOLTAGE
                    0x1066                  _BVOLTAGE
                    0x1068                  _PVOLTAGE
                    0x106a                  _MVOLTAGE
                    0x106c                  _TRIPVTG
                    0x106e                  _daccount
                    0x1070                  _MemoryChfg
                    0x1072                  _count_1ms
                    0x1074                  _count_20ms
                    0x1076                  _count_500ms
                    0x1078                  _count_200ms
                    0x107a                  _cout_100us
                    0x107c                  _prevwirespeed
                    0x107e                  _curwirespeed
                    0x1080                  _count_500ms1
                    0x1082                  _count_500ms2
                    0x1084                  _maxbasetime
                    0x1088                  _minbasetime
                    0x108c                  _pulsebase
                    0x1090                  _pulsepeak
                    0x1094                  _pulsestep
                    0x1098                  _pdaccount
                    0x109c                  _uppeakamp
                    0x10a0                  _uppdaccount
                    0x10a4                  _sdaccount
                    0x10a8                  _bdaccount
                    0x10ac                  _peakamp
                    0x10b0                  _stepamp
                    0x10b4                  _baseamp
                    0x10b8                  _pulseduty
                    0x10bc                  _weldonf
                    0x10bd                  _peakf
                    0x10be                  _stepf
                    0x10bf                  _basef
                    0x10c0                  _mbase1f
                    0x10c1                  _mbase2f
                    0x10c2                  _mpeak1f
                    0x10c3                  _mpeak2f
                    0x10c4                  _setupmode
                    0x10c5                  _setpeakf
                    0x10c6                  _setstepf
                    0x10c7                  _setbasef
                    0x10c8                  _setfreqf
                    0x10c9                  _modechangef
                    0x10ca                  _peaktime
                    0x10ce                  _steptime
                    0x10d2                  _newbasetime
                    0x10d6                  _newsteptime
                    0x10da                  _startpulsetime
                    0x10de                  _timer_first_edge
                    0x10e0                  _timer_second_edge
                    0x10e2                  _mperiod
                    0x10e4                  _Prev_mperiod
                    0x10e6                  _mfreq
                    0x10e8                  _newpeakamp
                    0x10ea                  _refbtime
                    0x10ec                  _maxrefbtime
                    0x10ee                  _minrefbtime
                    0x10f0                  _setwsfreq
                    0x10f2                  _softstartcnt
                    0x10f4                  _refpulsebase
                    0x10f6                  _refbaseamp
                    0x10f8                  _newpulsebase
                    0x10fa                  _maxpulsefreq
                    0x10fc                  _minpulsefreq
                    0x10fe                  _scaled_baseval2
                    0x1102                  _scaled_baseval22
                    0x1106                  _OPEN_scaled_val1
                    0x110a                  _OPEN_pidoutput1
                    0x110e                  _pulsefreq
                    0x1112                  _Hi_pulsefreq
                    0x1116                  _Lo_pulsefreq
                    0x111a                  _circular_arr
                    0x1124                  _sum_circular_arr
                    0x1126                  _circular_cnt
                    0x1128                  _pulseontime
                    0x112a                  _PULSEamp
                    0x112c                  _PULSEvtg
                    0x112e                  _CVOLTAGE
                    0x1130                  _loadbasetime
                    0x1132                  _loadbaseamp
                    0x1134                  _adel
                    0x1136                  _bdel
                    0x1138                  _wirestickupcnt
                    0x113a                  _wirestickdowncnt
                    0x113c                  _SCKCURRENT
                    0x113e                  _Tsampling
                    0x1142                  _ARCLFACTOR
                    0x1146                  _pidkp
                    0x114a                  _pidki
                    0x114e                  _pidkd
                    0x1152                  _disp_kiterm
                    0x1154                  _constpeakamp
                    0x1156                  _const_arc_strike_pdaccount
                    0x1158                  _count_weldonms
                    0x115a                  _delarcon11
                    0x115c                  _prevFltbvtg
                    0x115e                  _Fltbvtg
                    0x1160                  _rel_wirespeed
                    0x1162                  _startbmeasuref
                    0x1163                  _endbmeasuref
                    0x1164                  _arcforceonf
                    0x1165                  _trans2_onf
                    0x1166                  _adcreadoverf
                    0x1167                  _addafref
                    0x1168                  _lcdpage
                    0x116a                  _SUMSCKBVTGARR
                    0x116c                  _SCKCNT
                    0x116e                  _AVGBSCKVTG
                    0x1170                  _SCKBVOLTAGE
                    0x1172                  _id
                    0x1174                  _jd
                    0x1176                  _count_tx2_1ms
                    0x1178                  _count_tx2
                    0x117a                  _vtg_circular_cnt
                    0x117c                  _ACT_CVOLTAGE
                    0x117e                  _Shortcktf
                    0x117f                  _wfchangef
                    0x1180                  _stopbasef
                    0x1181                  _firstpulsef
                    0x1182                  _DISPavgf
                    0x1183                  _SCKavgf
                    0x1184                  _intkp
                    0x1185                  _intki
                    0x1186                  _intkd
                    0x1188                  _totalsumbvtg
                    0x118c                  _totalsumbcnt
                    0x1190                  _newpulseduty
                    0x1194                  _totalsumtrip
                    0x1198                  _total_fltbvtg
                    0x119a                  _Fltbvtgcnt
                    0x119c                  _avg_fltbvtg
                    0x119e                  _afbcurrent
                    0x11a0                  _setpidbamp
                    0x11a2                  _af_bdaccount
                    0x11a4                  _actual_fltbvtg
                    0x11a6                  _pidfactor
                    0x11a8                  _pulsestartcnt
                    0x11aa                  _twinpulsefreq
                    0x11ae                  _twinpulseperiod
                    0x11b2                  _twinpulseduty
                    0x11b6                  _twinpulseratio
                    0x11ba                  _twinpulseonperiod
                    0x11be                  _twinpulseoffperiod
                    0x11c2                  _scaled_val1
                    0x11c6                  _scaled_baseval
                    0x11ca                  _minoutmax
                    0x11ce                  _addrippleamp
                    0x11d2                  _totaltempvtg
                    0x11d4                  _tempvtgcnt
                    0x11d6                  _avgtempvtg
                    0x11d8                  _mavgtempvtg
                    0x11da                  _wirestickf
                    0x11dc                  _tempvtg
                    0x11de                  _presumdaccount
                    0x11e0                  _ALEN_pulsefreq
                    0x11e8                  _error_tx_flag
                    0x11ea                  _fSampling_freq
                    0x11ee                  _scalefactor2
                    0x11f0                  _scalefactor1
                    0x11f2                  _reference_area
                    0x11f4                  _refpulsefreq
                    0x11f6                  _Pvolterr
                    0x11f8                  _weldonstartfcnt
                    0x11fa                  _weldonstartbcnt
                    0x11fc                  _scaled_output1
                    0x11fe                  _maxpulseduty
                    0x1200                  _minpulseduty
                    0x1202                  _adaptivekp
                    0x1204                  _newpulsefreq
                    0x1208                  _errorrate
                    0x120c                  _num11
                    0x120e                  _num12
                    0x1210                  _ans11
                    0x1212                  _errdaccount
                    0x1214                  _ptosslope
                    0x1216                  _middaccount
                    0x1218                  _lowdaccount
                    0x121a                  _upstep
                    0x121c                  _downstep
                    0x121e                  _newupstep
                    0x1220                  _setparaBkpf
                    0x1221                  _setparaBkif
                    0x1222                  _setparaBkdf
                    0x1223                  _setparaPkpf
                    0x1224                  _setparaPkif
                    0x1225                  _setparaPkdf
                    0x1226                  _paraA
                    0x1227                  _paraB
                    0x1228                  _paraC
                    0x1229                  _dispwirespeed
                    0x122a                  _pweldonf
                    0x122b                  _ploopcnt
                    0x122c                  _transmit2f
                    0x122d                  _baseonf
                    0x122e                  _togglepin
                    0x122f                  _sendoncef
                    0x1230                  _pulsecyclestrt
                    0x1231                  _weldcyclestrt
                    0x1232                  _prevpulsecycle
                    0x1233                  _dummypulsecycle
                    0x1234                  _startstatus1
                    0x1235                  _recstatus
                    0x1236                  _recwfstatus
                    0x1237                  _cvrefon
                    0x1238                  _pulsestrtf
                    0x1239                  _Vweldon_detectf
                    0x123a                  _Aweldon_detectf
                    0x123b                  _openloopf
                    0x123c                  _peakonf
                    0x123d                  _Vweldon
                    0x123e                  _mig_ocv_check_f
                    0x1240                  _decaycurrent
                    0x1242                  _setbaseamp
                    0x1244                  _count_100ms
                    0x1246                  _prevwirespeed1
                    0x1248                  _micromulti
                    0x124a                  _PID_interval
                    0x124c                  _sckdaccount
                    0x124e                  _count_key_5000ms
                    0x1250                  _psetcurrent
                    0x1252                  _psetvoltage
                    0x1254                  _outputpulsebase
                    0x1256                  _minbaseamp
                    0x1258                  _maxbaseamp
                    0x125a                  _presetcurrent
                    0x125c                  _count4_1ms
                    0x125e                  _DACREF
                    0x1260                  _minbase
                    0x1262                  _maxbase
                    0x1264                  _maxpulsedutyterm
                    0x1266                  _minpulsedutyterm
                    0x1268                  _temperror1
                    0x126a                  _temperror2
                    0x126c                  _wfspeed
                    0x126e                  _presultcur
                    0x1270                  _PCURRENT
                    0x1272                  _padccur
                    0x1274                  _addonbase
                    0x1276                  _addonbase1
                    0x1278                  _tx2data
                    0x127a                  _pmigsetwirespeed
                    0x127c                  _pmigsetvoltage
                    0x127e                  _baseunit
                    0x1280                  _loopcount
                    0x1282                  _loopinterval
                    0x1284                  _count_1sec
                    0x1286                  _uartdata1
                    0x1288                  _uartdata2
                    0x128a                  _MAHESH
                    0x128c                  _microsec
                    0x128e                  _loadpara1
                    0x128f                  _iii
                    0x1290                  _chksum
                    0x1291                  _startptr1
                    0x1292                  _arrptr
                    0x1293                  _recchksum
                    0x1294                  _transmitonf
                    0x1295                  _transonf
                    0x1296                  _frepidf
                    0x1297                  _weldcycleon
                    0x1298                  _ppmigsetwirespeed
                    0x129a                  _ppmigsetvoltage
                    0x129c                  _basecurcnt
                    0x129e                  _basetime
                    0x12a0                  _peakvtg
                    0x12a2                  _peakvtgcnt
                    0x12a4                  _totalpeakvtg
                    0x12a6                  _startpulsetm
                    0x12a8                  _refbasetm
                    0x12aa                  _pidminbaseamp
                    0x12ac                  _temp_pidminbaseamp
                    0x12ae                  _pidmaxbaseamp
                    0x12b0                  _temp_pidmaxbaseamp
                    0x12b2                  _total_pulse_tm
                    0x12b4                  _pulsetmfactor
                    0x12b8                  _pulsecurfactor
                    0x12bc                  _pulsefreqfactor
                    0x12c0                  _MAXFBMULTIPLIER
                    0x12c4                  _OPEN_pulsetm
                    0x12c6                  _OPEN_steptm
                    0x12c8                  _OPEN_basetm
                    0x12ca                  _OPEN_pulserisetm
                    0x12cc                  _OPEN_pulsefalltm
                    0x12ce                  _OPEN_startpulsetm
                    0x12d0                  _OPEN_uppdaccount
                    0x12d2                  _OPEN_pdaccount
                    0x12d4                  _OPEN_sdaccount
                    0x12d6                  _OPEN_bdaccount
                    0x12d8                  _OPEN_newupstep
                    0x12da                  _OPEN_newdownstep
                    0x12dc                  _sum_setcurrent
                    0x12de                  _sumdaccount
                    0x12e0                  _PID_pulsetm
                    0x12e2                  _PID_steptm
                    0x12e4                  _PID_basetm
                    0x12e6                  _PID_pulserisetm
                    0x12e8                  _PID_pulsefalltm
                    0x12ea                  _PID_startpulsetm
                    0x12ec                  _PID_uppdaccount
                    0x12ee                  _PID_pdaccount
                    0x12f0                  _PID_sdaccount
                    0x12f2                  _PID_bdaccount
                    0x12f4                  _PID_newupstep
                    0x12f6                  _PID_newdownstep
                    0x12f8                  _arcforce_amp
                    0x12fa                  _FRQ_uppdaccount
                    0x12fc                  _FRQ_pdaccount
                    0x12fe                  _FRQ_sdaccount
                    0x1300                  _FRQ_bdaccount
                    0x1302                  _FRQ_newupstep
                    0x1304                  _FRQ_peakamp
                    0x1306                  _FRQ_stepamp
                    0x1308                  _FRQ_baseamp
                    0x130a                  _tarbasevtg
                    0x130c                  _PFREQ_uppdaccount
                    0x130e                  _PFREQ_pdaccount
                    0x1310                  _PFREQ_sdaccount
                    0x1312                  _PFREQ_bdaccount
                    0x1314                  _PFREQ_newupstep
                    0x1316                  _PFREQ_peakamp
                    0x1318                  _PFREQ_stepamp
                    0x131a                  _PFREQ_baseamp
                    0x131c                  _base_amp_twin_pulse
                    0x131e                  _min_base_amp
                    0x1320                  _max_base_amp
                    0x1322                  _min_freq
                    0x1324                  _max_freq
                    0x1326                  _step_base
                    0x1328                  _step_freq
                    0x132a                  _base_ramp_down_flag
                    0x132c                  _twn_rmp_down_offst_tm
                    0x132e                  _extint1status1
                    0x132f                  _extint2status1
                    0x1330                  _extint1status2
                    0x1331                  _extint2status2
                    0x1332                  _pincheck
                    0x1333                  _ext1ans
                    0x1334                  _ext2ans
                    0x1335                  _count_1ms_ext
                    0x1336                  _tx2chksum
                    0x1337                  _starttx2
                    0x1338                  _tx2counter
                    0x1339                  _startstatustx2
                    0x133a                  _tx2statuscounter
                    0x133b                  _firsttimef
                    0x133c                  _DISPamp
                    0x133e                  _DISPvtg
                    0x1340                  _DISPerr
                    0x1342                  _SCKamp
                    0x1344                  _SCKvtg
                    0x1346                  _SCKerr
                    0x1348                  _SCKVOLTAGE
                    0x134a                  _sck_current_ref
                    0x134c                  _temp_mjp
                    0x134e                  _FLTSCKvtg
                    0x1350                  _prevFLTSCKvtg
                    0x1352                  _disp_newbaseamp
                    0x1354                  _pulsecycle
                    0x1355                  _oper
                    0x1356                  _displedptr1
                    0x1357                  _displedptr2
                    0x1358                  _ak47
                    0x1359                  _emg_sendf
                    0x135a                  _changestatusf
                    0x135b                  _voltagechangef
                    0x135c                  _OCVON_command
                    0x135d                  _prev_OCVON_command
                    0x135e                  _power_on_in_mma
                    0x135f                  _power_on_in_tig
                    0x1360                  _T_weldingonf
                    0x1361                  _M_weldingonf
                    0x1362                  _mili1_100
                    0x1364                  _pluspara1
                    0x1366                  _pluscount1
                    0x1368                  _minuspara1
                    0x136a                  _minuscount1
                    0x136c                  _pulserisetm
                    0x136e                  _pulsefalltm
                    0x1370                  _pulsetm
                    0x1372                  _steptm
                    0x1374                  _basetm
                    0x1376                  _disptemp
                    0x1378                  _disptemp1
                    0x137a                  _decayslope
                    0x137e                  _linearcnt
                    0x1382                  _decaycnt
                    0x1386                  _decaycount
                    0x138a                  _ptosmslope
                    0x138e                  _upcnt
                    0x1392                  _tempval
                    0x1396                  _mkf
                    0x139a                  _Adaptive_freq_pidf
                    0x139b                  _keychange1
                    0x139c                  _keychange2
                    0x139e                  _newdownstep
                    0x13a0                  _downcnt
                    0x13a2                  _baseavgcnt
                    0x13a4                  _idecaycount
                    0x13a6                  _refstepamp
                    0x13a8                  _tpulsetime
                    0x13aa                  _pulserisetime
                    0x13ac                  _pulsefalltime
                    0x13ae                  _adtemp
                    0x13b2                  _ECONSTANT
                    0x13b6                  _shiftbvtgf
                    0x13b7                  _weldon_detectf
                    0x13b8                  _SUMBVTGARR
                    0x13ba                  _BCNT
                    0x13bc                  _AVGBVTG
                    0x13be                  _weldoncnt
                    0x13c0                  _ptigsetcurrent
                    0x13c2                  _ripplecnt
                    0x13c4                  _ripplecurrent
                    0x13c6                  _dispautocurrent
                    0x13c8                  _dispautothickness
                    0x13ca                  _parcforce
                    0x13cc                  _testmahe
                    0x13ce                  _parclength
                    0x13d0                  _parcbasevtg
                    0x13d2                  _tempmjp
                    0x13d4                  _refpeakamp
                    0x13d6                  _refpeaktm
                    0x13d8                  _eedata
                    0x13da                  _RP_BVOLTAGE
                    0x13dc                  _bdaccount_rp
                    0x13de                  _prowno
                    0x13e0                  _piii
                    0x13e2                  _piditeration
                    0x13e4                  _piditerationcnt
                    0x13e6                  _pulsepararr
                    0x13fa                  _program_number
                    0x13fb                  _tungsten_size
                    0x13fc                  _disparclen
                    0x13fd                  _setrefparaf
                    0x13fe                  _ftemp
                    0x1402                  _fwirespeed
                    0x1406                  _wirespeed
                    0x1408                  _current1
                    0x140a                  _current2
                    0x140c                  _voltage1
                    0x140e                  _voltage2
                    0x1410                  _thickness1
                    0x1412                  _thickness2
                    0x1414                  _Tbasevoltage1
                    0x1416                  _Tbasevoltage2
                    0x1418                  _Tbasevoltage
                    0x141a                  _strttmr
                    0x141b                  _torchval
                    0x141c                  _dummytorch
                    0x141d                  _prevpscyclestatus
                    0x141e                  _prevwfcyclestatus
                    0x141f                  _torchrelease
                    0x1420                  _cratersetup
                    0x1421                  _torchenable
                    0x1422                  _crateron
                    0x1423                  _fastexit
                    0x1424                  _setlcdweldparameter
                    0x1425                  _clearlcdf
                    0x1426                  _lcdmigpointer
                    0x1427                  _updatelcdf
                    0x1428                  _lcdscan_flag
                    0x1429                  _point
                    0x142a                  _memoryzone
                    0x142b                  _AFcnt
                    0x142c                  _timerval
                    0x142e                  _cntsecond
                    0x1430                  _voltageref
                    0x1432                  _fttrefvolt
                    0x1434                  _cvoffsetref
                    0x1436                  _prevpreflow
                    0x1438                  _prevburnback
                    0x143a                  _prevpostflow
                    0x143c                  _prevcratervoltage
                    0x143e                  _prevcraterspeed
                    0x1440                  _prevgcraterspeed
                    0x1442                  _prevpulseweldmode
                    0x1444                  _prevtwinpulsefreq
                    0x1446                  _prevtwinpulseduty
                    0x1448                  _prevtwinpulseratio
                    0x144a                  _prev_pcreepspeedrate
                    0x144c                  _timecount11
                    0x144e                  _dispnum1
                    0x1450                  _dispnum2
                    0x1452                  _AFvtg
                    0x1454                  _don
                    0x1456                  _donmin
                    0x1458                  _donmax
                    0x145a                  _prevdon
                    0x145c                  _max_lcd_cnt
                    0x145e                  _EE_Stat
                    0x1460                  _Act_EE_Addr
                    0x1464                  _SAV_TBLPAG
                    0x1466                  _aks
                    0x1468                  _diffpeakvtg
                    0x146a                  _read_tjointtype
                    0x146c                  _read_gsetcurrent
                    0x146e                  _pinductance
                    0x1470                  _read_gthickness
                    0x1472                  _newpidstepbasetime
                    0x1474                  _read_ptwinpulseratio
                    0x1476                  _read_pcreepspeedrate
                    0x1478                  _read_ptwinpulseduty
                    0x147a                  _read_ptwinpulsefreq
                    0x147c                  _read_ppulseweldmode
                    0x147e                  _Totalpulsepower
                    0x1482                  _Peakpowerconstant
                    0x1486                  _Steppowerconstant
                    0x148a                  _Basepowerconstant
                    0x148e                  _actpvtg
                    0x1492                  _actpcount
                    0x1496                  _pulseoncnt
                    0x1498                  _baseoncnt
                    0x149a                  _pulserefonf
                    0x149b                  _baserefonf
                    0x149c                  _startpcvloop
                    0x149e                  _sumpulsevoltage
                    0x14a2                  _sumbasevoltage
                    0x14a6                  _pulsevoltagecnt
                    0x14a8                  _basevoltagecnt
                    0x14aa                  _msrpulseoncnt
                    0x14ac                  _msrbaseoncnt
                    0x14ae                  _msrpulsevtg
                    0x14b0                  _msrbasevtg
                    0x14b2                  _avgpulsevtg
                    0x14b4                  _dispavgpulsevtg
                    0x14b6                  _msrbpvtg
                    0x14b8                  _FRQbaseamp
                    0x14ba                  _FRQbasevtg
                    0x14bc                  _fbavgpulsevtg
                    0x14be                  _prevavgpulsevtg
                    0x14c0                  _FRQ_sckscaled_val
                    0x14c2                  _PFREQ_sckscaled_val
                    0x14c4                  _peaktmfactor
                    0x14c8                  _basetmfactor
                    0x14cc                  _peakvtgpart
                    0x14d0                  _basevtgpart
                    0x14d4                  _PFREQ
                    0x14d8                  _PFREQERR
                    0x14dc                  _tmmsrpulseoncnt
                    0x14e0                  _tmmsrbaseoncnt
                    0x14e4                  _tmpeakvtg
                    0x14e8                  _tmbasevtg
                    0x14ec                  _flttmpeakvtg
                    0x14f0                  _prevtmpeakvtg
                    0x14f4                  _peakvtgarrcnt
                    0x14f6                  _avgpeakvtg
                    0x14f8                  _mpulsevtgcnt
                    0x14fa                  _avgmpulsevtg
                    0x14fc                  _mpulsevtg
                    0x14fe                  _migdaccount
                    0x1500                  _sum_mpulsevtg
                    0x1504                  _target_bvtg
                    0x1508                  _msrpulsevtgf
                    0x1509                  _power_on_flag
                    0x150a                  _sf_kpgain
                    0x150c                  _sf_kigain
                    0x150e                  _sf_kdgain
                    0x1510                  _sf_outputmax
                    0x1514                  _sf_outputmin
                    0x1518                  _sf_accumulator
                    0x151c                  _sf_pterm
                    0x1520                  _sf_iterm
                    0x1524                  _sf_dterm
                    0x1528                  _sf_scalefactor
                    0x152a                  _sf_mig_scalefactor
                    0x152c                  _sf_pidoutput
                    0x152e                  _scaled_sf_pidoutput
                    0x1530                  _lcd_saverecall_ptr
                    0x1532                  _save_location
                    0x1534                  _Recall_location
                    0x1536                  _prev_save_location
                    0x1538                  _prev_Recall_location
                    0x153a                  _mma_tig_error_latch
                    0x153b                  _universal_error_flag
                    0x153c                  _universal_error_latch
                    0x153d                  _UV_errorf
                    0x153e                  _OV_errorf
                    0x153f                  _TH_errorf
                    0x1540                  _HS_errorf
                    0x1541                  _comm_errorf
                    0x1542                  _ERROR_4_errorf
                    0x1543                  _pressure_error_flag
                    0x1544                  _over_curr_error_flag
                    0x1545                  _motor_encoder_errorf
                    0x1546                  _trip_adc_complet_flag
                    0x1548                  _looperrorvtg
                    0x154a                  _communication_time_out
                    0x154c                  _weld_p_para_latch
                    0x154d                  _setrefparaf_crater
                    0x154e                  _P_crater_current
                    0x1550                  _G_crater_current
                    0x1552                  _prevgcreepspeedrate
                    0x1554                  _prevhr
                    0x1556                  _prevmin
                    0x1558                  _prevsec
                    0x155a                  _arc_on_reset_count
                    0x155c                  _read_pmig_auto0_man1
                    0x155e                  _pmig_auto0_man1
                    0x155f                  _prev_pmig_auto0_man1
                    0x1560                  _password_set_count
                    0x1562                  _password
                    0x1564                  _set_password
                    0x1566                  _temp_password
                    0x1568                  _passwod_set_flag
                    0x1569                  _password_protection_enabled
                    0x156a                  _lcd_update_password
                    0x156b                  _prev_2t_4t_mode
                    0x156c                  _iPulseAddress
                    0x156e                  _iMigAddress
                    0x1570                  _iMigRootAddress
                    0x1572                  _iPercentagecnt
                    0x1574                  _iProgramCnt
                    0x1576                  _iProNo
                    0x1578                  _character
                    0x1978                  _sCRC_table
                    0x1ffa                  _controlHistory

External Symbols in Data Memory (by name):

                    0x117c                  _ACT_CVOLTAGE
                    0x142b                  _AFcnt
                    0x1452                  _AFvtg
                    0x11e0                  _ALEN_pulsefreq
                    0x1142                  _ARCLFACTOR
                    0x116e                  _AVGBSCKVTG
                    0x13bc                  _AVGBVTG
                    0x1460                  _Act_EE_Addr
                    0x139a                  _Adaptive_freq_pidf
                    0x123a                  _Aweldon_detectf
                    0x103d                  _Aweldonf
                    0x13ba                  _BCNT
                    0x1066                  _BVOLTAGE
                    0x0ae0                  _BVTGARR
                    0x148a                  _Basepowerconstant
                    0x1062                  _CURRENT
                    0x112e                  _CVOLTAGE
                    0x0b9c                  _ChkForAnotherfg
                    0x125e                  _DACREF
                    0x133c                  _DISPamp
                    0x1182                  _DISPavgf
                    0x1340                  _DISPerr
                    0x133e                  _DISPvtg
                    0x13b2                  _ECONSTANT
                    0x0a44                  _EEPROM_struct_mig
                    0x0a45                  _EEPROM_struct_pmig
                    0x145e                  _EE_Stat
                    0x0c28                  _ENPULSECURR
                    0x1542                  _ERROR_4_errorf
                    0x134e                  _FLTSCKvtg
                    0x1308                  _FRQ_baseamp
                    0x1300                  _FRQ_bdaccount
                    0x1302                  _FRQ_newupstep
                    0x12fc                  _FRQ_pdaccount
                    0x1304                  _FRQ_peakamp
                    0x14c0                  _FRQ_sckscaled_val
                    0x12fe                  _FRQ_sdaccount
                    0x1306                  _FRQ_stepamp
                    0x12fa                  _FRQ_uppdaccount
                    0x14b8                  _FRQbaseamp
                    0x14ba                  _FRQbasevtg
                    0x115e                  _Fltbvtg
                    0x119a                  _Fltbvtgcnt
                    0x1550                  _G_crater_current
                    0x1540                  _HS_errorf
                    0x1112                  _Hi_pulsefreq
                    0x0aae                  _Kiterm1
                    0x0aaa                  _Kiterm2
                    0x1116                  _Lo_pulsefreq
                    0x128a                  _MAHESH
                    0x12c0                  _MAXFBMULTIPLIER
                    0x1046                  _MIGweldon_detectf
                    0x106a                  _MVOLTAGE
                    0x1361                  _M_weldingonf
                    0x1070                  _MemoryChfg
                    0x135c                  _OCVON_command
                    0x12c8                  _OPEN_basetm
                    0x12d6                  _OPEN_bdaccount
                    0x12da                  _OPEN_newdownstep
                    0x12d8                  _OPEN_newupstep
                    0x12d2                  _OPEN_pdaccount
                    0x110a                  _OPEN_pidoutput1
                    0x12cc                  _OPEN_pulsefalltm
                    0x12ca                  _OPEN_pulserisetm
                    0x12c4                  _OPEN_pulsetm
                    0x1106                  _OPEN_scaled_val1
                    0x12d4                  _OPEN_sdaccount
                    0x12ce                  _OPEN_startpulsetm
                    0x12c6                  _OPEN_steptm
                    0x12d0                  _OPEN_uppdaccount
                    0x153e                  _OV_errorf
                    0x1270                  _PCURRENT
                    0x14d4                  _PFREQ
                    0x14d8                  _PFREQERR
                    0x131a                  _PFREQ_baseamp
                    0x1312                  _PFREQ_bdaccount
                    0x1314                  _PFREQ_newupstep
                    0x130e                  _PFREQ_pdaccount
                    0x1316                  _PFREQ_peakamp
                    0x14c2                  _PFREQ_sckscaled_val
                    0x1310                  _PFREQ_sdaccount
                    0x1318                  _PFREQ_stepamp
                    0x130c                  _PFREQ_uppdaccount
                    0x12e4                  _PID_basetm
                    0x12f2                  _PID_bdaccount
                    0x124a                  _PID_interval
                    0x12f6                  _PID_newdownstep
                    0x12f4                  _PID_newupstep
                    0x12ee                  _PID_pdaccount
                    0x12e8                  _PID_pulsefalltm
                    0x12e6                  _PID_pulserisetm
                    0x12e0                  _PID_pulsetm
                    0x12f0                  _PID_sdaccount
                    0x12ea                  _PID_startpulsetm
                    0x12e2                  _PID_steptm
                    0x12ec                  _PID_uppdaccount
                    0x112a                  _PULSEamp
                    0x1043                  _PULSEavgf
                    0x112c                  _PULSEvtg
                    0x1068                  _PVOLTAGE
                    0x154e                  _P_crater_current
                    0x1482                  _Peakpowerconstant
                    0x10e4                  _Prev_mperiod
                    0x1037                  _Prevkey
                    0x11f6                  _Pvolterr
                    0x13da                  _RP_BVOLTAGE
                    0x1534                  _Recall_location
                    0x0bef                  _Response_array
                    0x1464                  _SAV_TBLPAG
                    0x1170                  _SCKBVOLTAGE
                    0x116c                  _SCKCNT
                    0x113c                  _SCKCURRENT
                    0x1348                  _SCKVOLTAGE
                    0x1342                  _SCKamp
                    0x1183                  _SCKavgf
                    0x1346                  _SCKerr
                    0x1344                  _SCKvtg
                    0x13b8                  _SUMBVTGARR
                    0x116a                  _SUMSCKBVTGARR
                    0x117e                  _Shortcktf
                    0x1486                  _Steppowerconstant
                    0x0bc1                  _String_received_fg
                    0x153f                  _TH_errorf
                    0x106c                  _TRIPVTG
                    0x1360                  _T_weldingonf
                    0x1418                  _Tbasevoltage
                    0x1414                  _Tbasevoltage1
                    0x1416                  _Tbasevoltage2
                    0x0b9e                  _Testfg
                    0x147e                  _Totalpulsepower
                    0x113e                  _Tsampling
                    0x087a                  _TypeDP
                    0x087b                  _TypeU
                    0x153d                  _UV_errorf
                    0x1064                  _VOLTAGE
                    0x123d                  _Vweldon
                    0x1239                  _Vweldon_detectf
                    0x0b9f                  _WfEditfg
                    0x0800                  _abcCoefficient
                    0x1492                  _actpcount
                    0x148e                  _actpvtg
                    0x11a4                  _actual_fltbvtg
                    0x1202                  _adaptivekp
                    0x1044                  _adcreadf
                    0x1166                  _adcreadoverf
                    0x1167                  _addafref
                    0x1274                  _addonbase
                    0x1276                  _addonbase1
                    0x11ce                  _addrippleamp
                    0x1134                  _adel
                    0x13ae                  _adtemp
                    0x11a2                  _af_bdaccount
                    0x119e                  _afbcurrent
                    0x1358                  _ak47
                    0x1466                  _aks
                    0x1036                  _ans
                    0x1210                  _ans11
                    0x103e                  _antistick_f
                    0x155a                  _arc_on_reset_count
                    0x12f8                  _arcforce_amp
                    0x1164                  _arcforceonf
                    0x0a46                  _arcontime
                    0x0a52                  _arr
                    0x1292                  _arrptr
                    0x119c                  _avg_fltbvtg
                    0x14fa                  _avgmpulsevtg
                    0x14f6                  _avgpeakvtg
                    0x14b2                  _avgpulsevtg
                    0x11d6                  _avgtempvtg
                    0x131c                  _base_amp_twin_pulse
                    0x132a                  _base_ramp_down_flag
                    0x10b4                  _baseamp
                    0x13a2                  _baseavgcnt
                    0x129c                  _basecurcnt
                    0x10bf                  _basef
                    0x1498                  _baseoncnt
                    0x122d                  _baseonf
                    0x149b                  _baserefonf
                    0x129e                  _basetime
                    0x1374                  _basetm
                    0x14c8                  _basetmfactor
                    0x127e                  _baseunit
                    0x14a8                  _basevoltagecnt
                    0x14d0                  _basevtgpart
                    0x10a8                  _bdaccount
                    0x13dc                  _bdaccount_rp
                    0x1136                  _bdel
                    0x0d70                  _c200Msecfg
                    0x0bbc                  _cByte_cntr
                    0x0bc6                  _cCharDelay
                    0x0bc4                  _cChardlyStrfg
                    0x0d6e                  _cCursorBlinkfg
                    0x0d71                  _cCursorOfffg
                    0x0d6f                  _cCursorOnfg
                    0x0d67                  _cCursorPosition
                    0x0d42                  _cDnKeyLongPresscnt
                    0x0d40                  _cDnKeyLongPressfg
                    0x0c38                  _cE2p
                    0x0d60                  _cE2pData
                    0x0b8c                  _cEditfg
                    0x0c26                  _cEndPulseCnt
                    0x0c25                  _cEndPulsefg
                    0x0bc3                  _cFrameFoundfg
                    0x0c24                  _cFrameSendfg
                    0x0bc2                  _cFrameStrfg
                    0x0c2e                  _cFreqErrorupdatefg
                    0x0bbe                  _cFunction_code
                    0x0d59                  _cGasDiaupdate
                    0x0c47                  _cGasdia
                    0x0d3e                  _cGasdiachk
                    0x0d6c                  _cKeyPressStartfg
                    0x0d68                  _cLineNo
                    0x0ba4                  _cLoadFreqfg
                    0x0ba8                  _cLoadReffg
                    0x0bb8                  _cLoadVoltfg
                    0x0d6a                  _cMacMenuNo
                    0x0d6b                  _cMacMenufg
                    0x0d6d                  _cMainScreenfg
                    0x0d4f                  _cMatarray
                    0x0d5a                  _cMatchFoundfg
                    0x0c49                  _cMemoryScannerfg
                    0x0bbf                  _cNo_of_byte
                    0x0d5d                  _cPMainMenufg
                    0x0b91                  _cPWstarblinkcnt
                    0x0bc5                  _cParaUpdatefg
                    0x0d3f                  _cParachangeflag
                    0x0bc0                  _cPort_addr
                    0x0d38                  _cProgramChk
                    0x0c4b                  _cProgramupdatefg
                    0x0c40                  _cReadmat
                    0x0bc7                  _cReceive_buffer
                    0x0d69                  _cSerialPortTask
                    0x0bbd                  _cSlave_addr
                    0x0bbb                  _cSoftDonefg
                    0x0bba                  _cSoftStrCnt
                    0x0bb9                  _cSoftStrfg
                    0x0b8d                  _cTestfg
                    0x0b9a                  _cTestmmr
                    0x0bac                  _cTogglePinfg
                    0x0c48                  _cUpKeyLongPressfg
                    0x0d5c                  _cUpdatecursorfg
                    0x0c4c                  _cUpdatenamefg
                    0x0d4e                  _cWeldmode
                    0x0b8e                  _cWfVChangefg
                    0x135a                  _changestatusf
                    0x1578                  _character
                    0x1290                  _chksum
                    0x111a                  _circular_arr
                    0x1126                  _circular_cnt
                    0x1425                  _clearlcdf
                    0x142e                  _cntsecond
                    0x0b86                  _cntsecond_er4
                    0x1033                  _col
                    0x1541                  _comm_errorf
                    0x0a40                  _commandu
                    0x154a                  _communication_time_out
                    0x1156                  _const_arc_strike_pdaccount
                    0x1154                  _constpeakamp
                    0x1ffa                  _controlHistory
                    0x0d64                  _count200Msec
                    0x125c                  _count4_1ms
                    0x1244                  _count_100ms
                    0x1072                  _count_1ms
                    0x1335                  _count_1ms_ext
                    0x1284                  _count_1sec
                    0x1078                  _count_200ms
                    0x1074                  _count_20ms
                    0x1076                  _count_500ms
                    0x1080                  _count_500ms1
                    0x1082                  _count_500ms2
                    0x0c30                  _count_6ms
                    0x124e                  _count_key_5000ms
                    0x1178                  _count_tx2
                    0x1176                  _count_tx2_1ms
                    0x1158                  _count_weldonms
                    0x107a                  _cout_100us
                    0x1422                  _crateron
                    0x1420                  _cratersetup
                    0x0c4a                  _ctogglefg
                    0x0d5b                  _ctoggleflag
                    0x1408                  _current1
                    0x140a                  _current2
                    0x107e                  _curwirespeed
                    0x1434                  _cvoffsetref
                    0x1237                  _cvrefon
                    0x0b84                  _dVal_press0
                    0x0b82                  _dVal_press1
                    0x106e                  _daccount
                    0x1382                  _decaycnt
                    0x1386                  _decaycount
                    0x1240                  _decaycurrent
                    0x137a                  _decayslope
                    0x115a                  _delarcon11
                    0x0d7e                  _dia
                    0x1468                  _diffpeakvtg
                    0x101d                  _disdigit
                    0x0d72                  _disp_data_arr
                    0x1152                  _disp_kiterm
                    0x1352                  _disp_newbaseamp
                    0x13fc                  _disparclen
                    0x13c6                  _dispautocurrent
                    0x13c8                  _dispautothickness
                    0x0ae8                  _dispautovoltage
                    0x14b4                  _dispavgpulsevtg
                    0x1356                  _displedptr1
                    0x1357                  _displedptr2
                    0x144e                  _dispnum1
                    0x1450                  _dispnum2
                    0x1376                  _disptemp
                    0x1378                  _disptemp1
                    0x1229                  _dispwirespeed
                    0x0a4c                  _diswin1
                    0x0a4f                  _diswin2
                    0x1454                  _don
                    0x1458                  _donmax
                    0x1456                  _donmin
                    0x13a0                  _downcnt
                    0x121c                  _downstep
                    0x1233                  _dummypulsecycle
                    0x141c                  _dummytorch
                    0x13d8                  _eedata
                    0x1359                  _emg_sendf
                    0x102d                  _encod1
                    0x102e                  _encod2
                    0x102f                  _encod3
                    0x1163                  _endbmeasuref
                    0x0b7a                  _er1
                    0x0b7c                  _er2
                    0x0b7e                  _er3
                    0x0b80                  _err11_delay_counter
                    0x1212                  _errdaccount
                    0x0b78                  _error4_flag
                    0x0b79                  _error_4_check4t
                    0x11e8                  _error_tx_flag
                    0x1208                  _errorrate
                    0x0a41                  _erroru
                    0x1333                  _ext1ans
                    0x1334                  _ext2ans
                    0x132e                  _extint1status1
                    0x1330                  _extint1status2
                    0x132f                  _extint2status1
                    0x1331                  _extint2status2
                    0x11ea                  _fSampling_freq
                    0x0bb4                  _fTwinwirespeed
                    0x1423                  _fastexit
                    0x14bc                  _fbavgpulsevtg
                    0x101f                  _firstpulse1
                    0x1024                  _firstpulse2
                    0x1028                  _firstpulse3
                    0x1181                  _firstpulsef
                    0x133b                  _firsttimef
                    0x0aec                  _flt
                    0x14ec                  _flttmpeakvtg
                    0x0870                  _fooPID
                    0x1296                  _frepidf
                    0x13fe                  _ftemp
                    0x1432                  _fttrefvolt
                    0x1402                  _fwirespeed
                    0x0d80                  _gas
                    0x1034                  _glcd_flag
                    0x0ade                  _high_base_amp
                    0x1056                  _i
                    0x1010                  _iActualCurrent
                    0x1012                  _iActualVoltage
                    0x100c                  _iArcLength
                    0x0d14                  _iArrayindex
                    0x0ba0                  _iCalHiFreq
                    0x0ba2                  _iCalLowFreq
                    0x0b8f                  _iCntChk
                    0x0c18                  _iCrc_querry_word
                    0x1004                  _iCurrent
                    0x0d10                  _iCursorptr
                    0x1006                  _iDiaNo
                    0x0d18                  _iDiaindex
                    0x0d5e                  _iE2pData
                    0x0c2a                  _iFbVoltage
                    0x0d00                  _iFirstaddr
                    0x0c2c                  _iFreqError
                    0x0d48                  _iGasChk
                    0x1008                  _iGasNo
                    0x0d1c                  _iGasindex
                    0x0c22                  _iInput_data
                    0x0c1c                  _iInput_reg_addr
                    0x0d62                  _iKeyDoubleChkCntr
                    0x0ba6                  _iLoadFreqCntr
                    0x0baa                  _iLoadRefCntr
                    0x0d66                  _iMacMenuCntr
                    0x0d46                  _iMatChk
                    0x100a                  _iMatNo
                    0x156e                  _iMigAddress
                    0x0d4c                  _iMigProgNo
                    0x1570                  _iMigRootAddress
                    0x0c1e                  _iPara_addr
                    0x0c20                  _iPara_update
                    0x1572                  _iPercentagecnt
                    0x0c50                  _iPno
                    0x0d12                  _iPnoChk
                    0x1576                  _iProNo
                    0x0d0c                  _iProgRestoreLoc
                    0x0d06                  _iProgramChkLoc
                    0x1574                  _iProgramCnt
                    0x0cf8                  _iProgramLoadLoc
                    0x0d4a                  _iProgramNo
                    0x0cfa                  _iProgramStrLoc
                    0x0d0a                  _iProgupdateptr
                    0x156c                  _iPulseAddress
                    0x0ce4                  _iPulsepara
                    0x0d24                  _iPulseparachk
                    0x0c52                  _iReadPno
                    0x0c54                  _iReadpara
                    0x0b98                  _iRxwfVoltage
                    0x0b96                  _iSampleCnt
                    0x0d02                  _iSecondaddr
                    0x0b92                  _iTest1
                    0x0b94                  _iTest2
                    0x0d44                  _iThickChk
                    0x0bae                  _iTwinSetVolt
                    0x0bb0                  _iTwinSetVolt2
                    0x0bb2                  _iTwinwirespeed
                    0x0d04                  _iUpKeyLongPresscnt
                    0x1000                  _iVoltage
                    0x1002                  _iWireSpeed
                    0x0c32                  _iWrAddr
                    0x1172                  _id
                    0x13a4                  _idecaycount
                    0x128f                  _iii
                    0x101c                  _ijk
                    0x1186                  _intkd
                    0x1185                  _intki
                    0x1184                  _intkp
                    0x0c34                  _ireadaddr
                    0x0c36                  _ireadmmry
                    0x0c4e                  _isaveaddr
                    0x1058                  _j
                    0x1174                  _jd
                    0x105a                  _k
                    0x1014                  _kCoeffs
                    0x0a96                  _kd1_prev
                    0x0a7e                  _kd2_prev
                    0x0aba                  _kdgamma1
                    0x0aa6                  _kdgamma2
                    0x1035                  _key
                    0x139b                  _keychange1
                    0x139c                  _keychange2
                    0x1040                  _keycolumn
                    0x1041                  _keypad
                    0x103f                  _keyrow
                    0x0a8e                  _ki1_prev
                    0x0a76                  _ki2_prev
                    0x0ab6                  _kigamma1
                    0x0aa2                  _kigamma2
                    0x0a86                  _kp1_prev
                    0x0a6e                  _kp2_prev
                    0x0ab2                  _kpgamma1
                    0x0a9e                  _kpgamma2
                    0x1530                  _lcd_saverecall_ptr
                    0x156a                  _lcd_update_password
                    0x1426                  _lcdmigpointer
                    0x1168                  _lcdpage
                    0x1428                  _lcdscan_flag
                    0x137e                  _linearcnt
                    0x1132                  _loadbaseamp
                    0x1130                  _loadbasetime
                    0x128e                  _loadpara1
                    0x1280                  _loopcount
                    0x1548                  _looperrorvtg
                    0x1282                  _loopinterval
                    0x0adc                  _low_base_amp
                    0x1218                  _lowdaccount
                    0x0d7c                  _mat
                    0x11d8                  _mavgtempvtg
                    0x0b76                  _max_Gws
                    0x0b74                  _max_Pws
                    0x1320                  _max_base_amp
                    0x1324                  _max_freq
                    0x145c                  _max_lcd_cnt
                    0x1262                  _maxbase
                    0x1258                  _maxbaseamp
                    0x1084                  _maxbasetime
                    0x11fe                  _maxpulseduty
                    0x1264                  _maxpulsedutyterm
                    0x10fa                  _maxpulsefreq
                    0x10ec                  _maxrefbtime
                    0x10c0                  _mbase1f
                    0x10c1                  _mbase2f
                    0x0d78                  _mdia
                    0x0d7a                  _melectrode
                    0x142a                  _memoryzone
                    0x10e6                  _mfreq
                    0x1248                  _micromulti
                    0x128c                  _microsec
                    0x1216                  _middaccount
                    0x123e                  _mig_ocv_check_f
                    0x14fe                  _migdaccount
                    0x1362                  _mili1_100
                    0x131e                  _min_base_amp
                    0x1322                  _min_freq
                    0x1260                  _minbase
                    0x1256                  _minbaseamp
                    0x1088                  _minbasetime
                    0x11ca                  _minoutmax
                    0x1200                  _minpulseduty
                    0x1266                  _minpulsedutyterm
                    0x10fc                  _minpulsefreq
                    0x10ee                  _minrefbtime
                    0x1022                  _minus111
                    0x1026                  _minus222
                    0x102a                  _minus333
                    0x136a                  _minuscount1
                    0x1368                  _minuspara1
                    0x1396                  _mkf
                    0x153a                  _mma_tig_error_latch
                    0x0d76                  _mmat
                    0x10c9                  _modechangef
                    0x1545                  _motor_encoder_errorf
                    0x10c2                  _mpeak1f
                    0x10c3                  _mpeak2f
                    0x10e2                  _mperiod
                    0x14fc                  _mpulsevtg
                    0x0b46                  _mpulsevtgarr
                    0x14f8                  _mpulsevtgcnt
                    0x14ac                  _msrbaseoncnt
                    0x14b0                  _msrbasevtg
                    0x14b6                  _msrbpvtg
                    0x14aa                  _msrpulseoncnt
                    0x14ae                  _msrpulsevtg
                    0x1508                  _msrpulsevtgf
                    0x0b72                  _mult_factor
                    0x1023                  _new1
                    0x1027                  _new2
                    0x102b                  _new3
                    0x10d2                  _newbasetime
                    0x139e                  _newdownstep
                    0x10e8                  _newpeakamp
                    0x1472                  _newpidstepbasetime
                    0x10f8                  _newpulsebase
                    0x1190                  _newpulseduty
                    0x1204                  _newpulsefreq
                    0x10d6                  _newsteptime
                    0x121e                  _newupstep
                    0x105c                  _num1
                    0x120c                  _num11
                    0x120e                  _num12
                    0x105e                  _num2
                    0x0b9d                  _ocvonfg
                    0x1030                  _old1
                    0x1031                  _old2
                    0x1032                  _old3
                    0x123b                  _openloopf
                    0x103c                  _openloopnew
                    0x1355                  _oper
                    0x1254                  _outputpulsebase
                    0x1544                  _over_curr_error_flag
                    0x1272                  _padccur
                    0x1226                  _paraA
                    0x1227                  _paraB
                    0x1228                  _paraC
                    0x08f0                  _para_tempu
                    0x0880                  _parau
                    0x13d0                  _parcbasevtg
                    0x13ca                  _parcforce
                    0x13ce                  _parclength
                    0x1568                  _passwod_set_flag
                    0x1562                  _password
                    0x1569                  _password_protection_enabled
                    0x1560                  _password_set_count
                    0x1098                  _pdaccount
                    0x0d8a                  _pdia
                    0x10ac                  _peakamp
                    0x10bd                  _peakf
                    0x123c                  _peakonf
                    0x10ca                  _peaktime
                    0x14c4                  _peaktmfactor
                    0x12a0                  _peakvtg
                    0x0b3e                  _peakvtgarr
                    0x14f4                  _peakvtgarrcnt
                    0x12a2                  _peakvtgcnt
                    0x14cc                  _peakvtgpart
                    0x0d8c                  _pgas
                    0x0960                  _pidParams1
                    0x09c4                  _pidParams2
                    0x11a6                  _pidfactor
                    0x13e2                  _piditeration
                    0x13e4                  _piditerationcnt
                    0x114e                  _pidkd
                    0x114a                  _pidki
                    0x1146                  _pidkp
                    0x12ae                  _pidmaxbaseamp
                    0x12aa                  _pidminbaseamp
                    0x13e0                  _piii
                    0x1332                  _pincheck
                    0x146e                  _pinductance
                    0x122b                  _ploopcnt
                    0x1020                  _plus111
                    0x1025                  _plus222
                    0x1029                  _plus333
                    0x1366                  _pluscount1
                    0x1364                  _pluspara1
                    0x0d88                  _pmat
                    0x155e                  _pmig_auto0_man1
                    0x127c                  _pmigsetvoltage
                    0x127a                  _pmigsetwirespeed
                    0x1429                  _point
                    0x1054                  _power_delay
                    0x1509                  _power_on_flag
                    0x135e                  _power_on_in_mma
                    0x135f                  _power_on_in_tig
                    0x129a                  _ppmigsetvoltage
                    0x1298                  _ppmigsetwirespeed
                    0x125a                  _presetcurrent
                    0x1543                  _pressure_error_flag
                    0x126e                  _presultcur
                    0x11de                  _presumdaccount
                    0x1350                  _prevFLTSCKvtg
                    0x115c                  _prevFltbvtg
                    0x0d08                  _prevProgramChkLoc
                    0x0cfe                  _prevProgramLoadLoc
                    0x0cfc                  _prevProgramStrLoc
                    0x156b                  _prev_2t_4t_mode
                    0x135d                  _prev_OCVON_command
                    0x1538                  _prev_Recall_location
                    0x0b88                  _prev_arcontimehr
                    0x0b8a                  _prev_arcontimemin
                    0x0b20                  _prev_eeprom_mig_struct
                    0x0b3c                  _prev_eeprom_pmig_struct
                    0x144a                  _prev_pcreepspeedrate
                    0x155f                  _prev_pmig_auto0_man1
                    0x1536                  _prev_save_location
                    0x0d16                  _prevarrayindex
                    0x14be                  _prevavgpulsevtg
                    0x1438                  _prevburnback
                    0x143e                  _prevcraterspeed
                    0x143c                  _prevcratervoltage
                    0x0aea                  _prevcreepspeedrate
                    0x0d1a                  _prevdiaindex
                    0x145a                  _prevdon
                    0x0d1e                  _prevgasindex
                    0x1440                  _prevgcraterspeed
                    0x1552                  _prevgcreepspeedrate
                    0x1554                  _prevhr
                    0x1556                  _prevmin
                    0x143a                  _prevpostflow
                    0x1436                  _prevpreflow
                    0x0d0e                  _prevprogrestoreLoc
                    0x141d                  _prevpscyclestatus
                    0x1232                  _prevpulsecycle
                    0x0d22                  _prevpulseptr
                    0x1442                  _prevpulseweldmode
                    0x1558                  _prevsec
                    0x14f0                  _prevtmpeakvtg
                    0x1446                  _prevtwinpulseduty
                    0x1444                  _prevtwinpulsefreq
                    0x1448                  _prevtwinpulseratio
                    0x141e                  _prevwfcyclestatus
                    0x107c                  _prevwirespeed
                    0x1246                  _prevwirespeed1
                    0x13fa                  _program_number
                    0x13de                  _prowno
                    0x1250                  _psetcurrent
                    0x1252                  _psetvoltage
                    0x0a3f                  _psstatusu
                    0x0a28                  _pstowfstru
                    0x13c0                  _ptigsetcurrent
                    0x138a                  _ptosmslope
                    0x1214                  _ptosslope
                    0x108c                  _pulsebase
                    0x0ac0                  _pulsebase_trial
                    0x12b8                  _pulsecurfactor
                    0x1354                  _pulsecycle
                    0x1230                  _pulsecyclestrt
                    0x10b8                  _pulseduty
                    0x13ac                  _pulsefalltime
                    0x136e                  _pulsefalltm
                    0x110e                  _pulsefreq
                    0x12bc                  _pulsefreqfactor
                    0x1496                  _pulseoncnt
                    0x1128                  _pulseontime
                    0x13e6                  _pulsepararr
                    0x1090                  _pulsepeak
                    0x0d20                  _pulseptr
                    0x149a                  _pulserefonf
                    0x13aa                  _pulserisetime
                    0x136c                  _pulserisetm
                    0x11a8                  _pulsestartcnt
                    0x1094                  _pulsestep
                    0x1238                  _pulsestrtf
                    0x1370                  _pulsetm
                    0x12b4                  _pulsetmfactor
                    0x14a6                  _pulsevoltagecnt
                    0x1048                  _pulseweldonf
                    0x122a                  _pweldonf
                    0x0b10                  _read_gburnback
                    0x0b0c                  _read_gcratercurrent
                    0x0b1e                  _read_gcratervoltag
                    0x0b0e                  _read_gcratervoltage
                    0x0b18                  _read_gdiameter
                    0x0b1a                  _read_ggas
                    0x0b16                  _read_gmaterial
                    0x0b14                  _read_gpostflow
                    0x0b08                  _read_gpreflow
                    0x146c                  _read_gsetcurrent
                    0x0b0a                  _read_gsetvoltage
                    0x0b12                  _read_gsetwspeed
                    0x1470                  _read_gthickness
                    0x0b1c                  _read_inductance
                    0x0af2                  _read_marcforce
                    0x0af6                  _read_melectrodesize
                    0x0af8                  _read_melectrotype
                    0x0aee                  _read_mhotstart
                    0x0af4                  _read_mmaterial
                    0x0af0                  _read_msetcurrent
                    0x0b32                  _read_parclength
                    0x0b2c                  _read_pburnback
                    0x0b28                  _read_pcratercurrent
                    0x0b2a                  _read_pcratervoltage
                    0x1476                  _read_pcreepspeedrate
                    0x0b38                  _read_pdiameter
                    0x0b3a                  _read_pgas
                    0x0b36                  _read_pmaterial
                    0x155c                  _read_pmig_auto0_man1
                    0x0b34                  _read_ppostflow
                    0x0b22                  _read_ppreflow
                    0x147c                  _read_ppulseweldmode
                    0x0b24                  _read_psetcurrent
                    0x0b26                  _read_psetvoltage
                    0x0b2e                  _read_psetwspeed
                    0x0b30                  _read_pthickness
                    0x1478                  _read_ptwinpulseduty
                    0x147a                  _read_ptwinpulsefreq
                    0x1474                  _read_ptwinpulseratio
                    0x0b02                  _read_tendcurrent
                    0x146a                  _read_tjointtype
                    0x0b04                  _read_tmaterial
                    0x0b06                  _read_tplatesize
                    0x0afa                  _read_tpreflow
                    0x0b00                  _read_tsetcurrent
                    0x0afc                  _read_tstartcurrent
                    0x0afe                  _read_tupslopetime
                    0x0ac2                  _rec_arr
                    0x1293                  _recchksum
                    0x1235                  _recstatus
                    0x1236                  _recwfstatus
                    0x10f6                  _refbaseamp
                    0x12a8                  _refbasetm
                    0x10ea                  _refbtime
                    0x11f2                  _reference_area
                    0x13d4                  _refpeakamp
                    0x13d6                  _refpeaktm
                    0x10f4                  _refpulsebase
                    0x11f4                  _refpulsefreq
                    0x13a6                  _refstepamp
                    0x1160                  _rel_wirespeed
                    0x1021                  _result
                    0x13c2                  _ripplecnt
                    0x13c4                  _ripplecurrent
                    0x0c1a                  _sCRC_response_word
                    0x1978                  _sCRC_table
                    0x1532                  _save_location
                    0x11c6                  _scaled_baseval
                    0x10fe                  _scaled_baseval2
                    0x1102                  _scaled_baseval22
                    0x11fc                  _scaled_output1
                    0x152e                  _scaled_sf_pidoutput
                    0x11c2                  _scaled_val1
                    0x0abe                  _scaled_val2
                    0x11f0                  _scalefactor1
                    0x11ee                  _scalefactor2
                    0x102c                  _scan_count
                    0x134a                  _sck_current_ref
                    0x124c                  _sckdaccount
                    0x10a4                  _sdaccount
                    0x0a5a                  _secondpulse1
                    0x0a5b                  _secondpulse2
                    0x0a5c                  _secondpulse3
                    0x122f                  _sendoncef
                    0x0b90                  _setPasswordfg
                    0x1564                  _set_password
                    0x1242                  _setbaseamp
                    0x10c7                  _setbasef
                    0x101e                  _setdp
                    0x10c8                  _setfreqf
                    0x1424                  _setlcdweldparameter
                    0x1222                  _setparaBkdf
                    0x1221                  _setparaBkif
                    0x1220                  _setparaBkpf
                    0x1225                  _setparaPkdf
                    0x1224                  _setparaPkif
                    0x1223                  _setparaPkpf
                    0x10c5                  _setpeakf
                    0x11a0                  _setpidbamp
                    0x103a                  _setptimef
                    0x13fd                  _setrefparaf
                    0x154d                  _setrefparaf_crater
                    0x10c6                  _setstepf
                    0x103b                  _setstimef
                    0x10c4                  _setupmode
                    0x10f0                  _setwsfreq
                    0x1518                  _sf_accumulator
                    0x1524                  _sf_dterm
                    0x0b6a                  _sf_error
                    0x0b68                  _sf_feedback
                    0x1520                  _sf_iterm
                    0x150e                  _sf_kdgain
                    0x150c                  _sf_kigain
                    0x150a                  _sf_kpgain
                    0x152a                  _sf_mig_scalefactor
                    0x1510                  _sf_outputmax
                    0x1514                  _sf_outputmin
                    0x0b6e                  _sf_pid
                    0x152c                  _sf_pidoutput
                    0x0b6c                  _sf_preverror
                    0x151c                  _sf_pterm
                    0x1528                  _sf_scalefactor
                    0x0b66                  _sf_setpoint
                    0x13b6                  _shiftbvtgf
                    0x1045                  _shortcktonf
                    0x10f2                  _softstartcnt
                    0x1038                  _softstartf
                    0x1162                  _startbmeasuref
                    0x149c                  _startpcvloop
                    0x1291                  _startptr1
                    0x10da                  _startpulsetime
                    0x12a6                  _startpulsetm
                    0x1234                  _startstatus1
                    0x1339                  _startstatustx2
                    0x1337                  _starttx2
                    0x1326                  _step_base
                    0x1328                  _step_freq
                    0x10b0                  _stepamp
                    0x10be                  _stepf
                    0x10ce                  _steptime
                    0x1372                  _steptm
                    0x1180                  _stopbasef
                    0x141a                  _strttmr
                    0x1124                  _sum_circular_arr
                    0x1500                  _sum_mpulsevtg
                    0x12dc                  _sum_setcurrent
                    0x14a2                  _sumbasevoltage
                    0x12de                  _sumdaccount
                    0x149e                  _sumpulsevoltage
                    0x130a                  _tarbasevtg
                    0x1504                  _target_bvtg
                    0x0d84                  _tdia
                    0x101b                  _temp
                    0x134c                  _temp_mjp
                    0x1566                  _temp_password
                    0x12b0                  _temp_pidmaxbaseamp
                    0x12ac                  _temp_pidminbaseamp
                    0x1268                  _temperror1
                    0x126a                  _temperror2
                    0x101a                  _tempkey
                    0x13d2                  _tempmjp
                    0x1392                  _tempval
                    0x11dc                  _tempvtg
                    0x11d4                  _tempvtgcnt
                    0x13cc                  _testmahe
                    0x1410                  _thickness1
                    0x1412                  _thickness2
                    0x144c                  _timecount11
                    0x10de                  _timer_first_edge
                    0x10e0                  _timer_second_edge
                    0x142c                  _timerval
                    0x0d86                  _tjoint
                    0x0d82                  _tmat
                    0x14e8                  _tmbasevtg
                    0x14e0                  _tmmsrbaseoncnt
                    0x14dc                  _tmmsrpulseoncnt
                    0x14e4                  _tmpeakvtg
                    0x122e                  _togglepin
                    0x1421                  _torchenable
                    0x141f                  _torchrelease
                    0x141b                  _torchval
                    0x1198                  _total_fltbvtg
                    0x12b2                  _total_pulse_tm
                    0x12a4                  _totalpeakvtg
                    0x118c                  _totalsumbcnt
                    0x1188                  _totalsumbvtg
                    0x1194                  _totalsumtrip
                    0x11d2                  _totaltempvtg
                    0x13a8                  _tpulsetime
                    0x1165                  _trans2_onf
                    0x122c                  _transmit2f
                    0x1294                  _transmitonf
                    0x1295                  _transonf
                    0x1546                  _trip_adc_complet_flag
                    0x13fb                  _tungsten_size
                    0x104a                  _twinpulsecnt
                    0x11b2                  _twinpulseduty
                    0x11aa                  _twinpulsefreq
                    0x11be                  _twinpulseoffperiod
                    0x11ba                  _twinpulseonperiod
                    0x11ae                  _twinpulseperiod
                    0x11b6                  _twinpulseratio
                    0x132c                  _twn_rmp_down_offst_tm
                    0x1336                  _tx2chksum
                    0x1338                  _tx2counter
                    0x1278                  _tx2data
                    0x133a                  _tx2statuscounter
                    0x1286                  _uartdata1
                    0x1288                  _uartdata2
                    0x153b                  _universal_error_flag
                    0x153c                  _universal_error_latch
                    0x138e                  _upcnt
                    0x1427                  _updatelcdf
                    0x10a0                  _uppdaccount
                    0x109c                  _uppeakamp
                    0x121a                  _upstep
                    0x1060                  _val
                    0x140c                  _voltage1
                    0x140e                  _voltage2
                    0x135b                  _voltagechangef
                    0x1430                  _voltageref
                    0x0a5e                  _vtg_circular_arr
                    0x117a                  _vtg_circular_cnt
                    0x154c                  _weld_p_para_latch
                    0x1297                  _weldcycleon
                    0x1231                  _weldcyclestrt
                    0x1042                  _weldingonf
                    0x1039                  _weldmodeoff
                    0x13b7                  _weldon_detectf
                    0x13be                  _weldoncnt
                    0x10bc                  _weldonf
                    0x11fa                  _weldonstartbcnt
                    0x11f8                  _weldonstartfcnt
                    0x104c                  _weldwiredia
                    0x117f                  _wfchangef
                    0x126c                  _wfspeed
                    0x0a43                  _wfstatusu
                    0x1406                  _wirespeed
                    0x113a                  _wirestickdowncnt
                    0x11da                  _wirestickf
                    0x1138                  _wirestickupcnt

External Symbols in Program Memory (by address):

                  0x000100                  __resetPRI
                  0x000180                  ___floatsisf
                  0x0001d6                  ___subsf3
                  0x0001d8                  ___addsf3
                  0x000292                  ___mulsf3
                  0x0002fa                  ___fixunssfsi
                  0x000330                  ___udivsi3
                  0x000350                  __fpack
                  0x00039c                  __funpack2
                  0x0003ac                  __fPropagateNaN
                  0x0003be                  __fbopExit
                  0x0003c6                  __fbopReturnNaN
                  0x0003cc                  __funpack
                  0x0003f6                  _PID
                  0x00042e                  _PIDInit
                  0x000444                  _PIDCoeffCalc
                  0x000468                  _findmatindex
                  0x00049c                  _findmatindex1
                  0x0004cc                  _findmatindex2
                  0x0004f8                  _findmatindex3
                  0x00059e                  _newfindmatindex4
                  0x0005d2                  _newfindmatindex5
                  0x0005f4                  _newfindmatindex6
                  0x000626                  _newfindmatindex7
                  0x000656                  _write_mode_mem
                  0x000886                  _recall_mode_mem
                  0x000bc4                  _EEPROM_Read
                  0x000ca6                  _EEPROM_Erase_Write
                  0x000e12                  _EEPROM_Read_for_SaveRecall
                  0x000e52                  _EEPROM_Erase_Write_for_SaveRecall
                  0x000f1c                  _read_current_status
                  0x001276                  _write_current_status
                  0x001726                  _check_eeprom_values
                  0x001f88                  _findmatindex4
                  0x001fbc                  _findmatindex5
                  0x001fec                  __INT1Interrupt
                  0x001ff4                  __INT2Interrupt
                  0x002014                  __T1Interrupt
                  0x002488                  __T2Interrupt
                  0x002542                  __T3Interrupt
                  0x002554                  __T5Interrupt
                  0x002ac0                  __T4Interrupt
                  0x002b12                  __ADCInterrupt
                  0x002d8a                  __SPI2Interrupt
                  0x002da2                  __U1RXInterrupt
                  0x002e08                  __U2TXInterrupt
                  0x002e8e                  __U2RXInterrupt
                  0x003118                  _Toggle_pin11
                  0x00313c                  _Reload_pulse_para
                  0x0031ca                  _lcd_int
                  0x00323c                  _ctrloff
                  0x00324e                  _displayon
                  0x003274                  _displayoff
                  0x00329a                  _delay
                  0x0032b8                  _delayy
                  0x0032e6                  _selectpage
                  0x003312                  _selectcolumn1
                  0x00334c                  _selectcolumn2
                  0x00338a                  _clrlcd
                  0x0033d0                  _ador_logo
                  0x003430                  _onlcd
                  0x003474                  _data
                  0x003506                  _lcddatalat
                  0x0035fe                  _lcdscan
                  0x003604                  _lcdput
                  0x003670                  _lcdput_bold
                  0x0036e2                  _NumberUpdate
                  0x003748                  _peakampupdate
                  0x003756                  _noprogramupdate
                  0x003764                  _currupdate
                  0x0037d6                  _datafordebugonlcd
                  0x003a5c                  _latdata
                  0x003bbe                  _display_data
                  0x003d1c                  _lcd_disp_hex_dec
                  0x003d5a                  _lcd_disp_hex_dec4digit
                  0x003db0                  _disp_hex_dec_curr
                  0x003dee                  _disp_hex_dec_volt
                  0x003e2c                  _disp_hex_dec_arclength2
                  0x003eac                  _display_start
                  0x003ecc                  _ENCODER_INIT
                  0x003ede                  _SCANENCODER1
                  0x003fa4                  _enc1_port
                  0x003ffa                  _SCANENCODER2
                  0x0040c8                  _enc2_port
                  0x004120                  _SCANENCODER3
                  0x0041e6                  _enc3_port
                  0x00423c                  _keypad_read
                  0x004264                  _init_keyportpin
                  0x004278                  _allrowlogic0
                  0x00427e                  _allcolumnlogic1
                  0x00428a                  _scanrow
                  0x0042da                  _keyrelease
                  0x004310                  _key_press
                  0x004328                  _getkey
                  0x00437a                  _columnnum1
                  0x0043aa                  _all0exceptcolumn1
                  0x0043b6                  _all0exceptcolumn2
                  0x0043c2                  _all0exceptcolumn3
                  0x0043ce                  _keydelay
                  0x0043e2                  _debounce_delay
                  0x0043f4                  _key_application
                  0x00490e                  _MainScreenShow
                  0x004914                  _CursorBlink
                  0x00491e                  _UpdateMacMenuScreenDataField
                  0x004926                  _Decode_querry
                  0x004bd6                  _UpdateParaFromHMI
                  0x004ca6                  _UpdateParaIntoHMI
                  0x004cf4                  _Calculate_CRC
                  0x004d38                  _I2C_init
                  0x004d42                  _I2C_Write
                  0x004d90                  _I2C_Write1
                  0x004de4                  _I2C_Read1
                  0x004e1c                  _bytewrite
                  0x004e78                  _startBitGen
                  0x004e92                  _stopBitGen
                  0x004ea8                  _ACK
                  0x004ed2                  _NOACK
                  0x004eea                  _clock_high
                  0x004ef4                  _clock_low
                  0x004efe                  _delayI2C
                  0x004f1e                  _I2C_Read
                  0x004fb6                  _byteread
                  0x004ff6                  _I2C_ReadInt
                  0x005054                  _SendACK
                  0x005066                  _E2P_Write
                  0x005096                  _write_in_external_memory
                  0x0051d4                  _update_mat_dia_gas
                  0x0052f4                  _Write_in_EEPROM
                  0x005502                  _Clear_EEPROM_Prog_Num_Locations
                  0x0055ac                  _Write_Mig_root_Data_in_EEPROM
                  0x0056c6                  _Write_Mig_Data_in_EEPROM
                  0x0057e0                  _update_mig_mat_dia_gas_root
                  0x005900                  _update_mig_mat_dia_gas
                  0x005a20                  _Check_Updated_EEPROM
                  0x005a7c                  _read_from_external_memory
                  0x005b46                  _mem_to_mem_write
                  0x005ba6                  _program_check_from_mem
                  0x005c80                  _display_update_for_pulse_para
                  0x005d36                  _pulse_parameter_update
                  0x005d62                  _write_in_external_memory_updated_data
                  0x005e94                  _main
                  0x006c6e                  _delay_pmig
                  0x006c84                  _updatemccparameter
                  0x006cbc                  _updatetccparameter
                  0x006cdc                  _updategcvparameter
                  0x006d64                  _updatepccparameter
                  0x006da4                  _updatemigparameter
                  0x006dac                  _updatepmigparameter
                  0x006db4                  _updatedata
                  0x006e64                  _updatedata1
                  0x006ea0                  _SYSTEM_INIT
                  0x006ebe                  _READ_PORTPIN
                  0x006ec4                  _SPI_INIT
                  0x006f0a                  _TIMER1_INIT
                  0x006f2e                  _TIMER2_INIT
                  0x006f52                  _TIMER3_INIT
                  0x006f76                  _TIMER4_INIT
                  0x006f9a                  _TIMER5_INIT
                  0x006fb4                  _PWM_INIT
                  0x00700a                  _ADC_INIT
                  0x007070                  _UART1_INIT
                  0x007084                  _TRANS1
                  0x007098                  _TRANSNUM
                  0x0070ba                  _UART2_INIT
                  0x0070d0                  _TRANS2
                  0x0070e4                  _Send_num
                  0x007112                  _PORTPIN_INIT
                  0x0071c6                  _transmittowf
                  0x007254                  _INT12_INIT
                  0x00728a                  _display_Ldata
                  0x00737a                  _trip_detection
                  0x007382                  _Detect_error
                  0x007388                  _LCD_pulsemig_syn_data_write
                  0x0073de                  _LCD_mig_syn_data_write
                  0x007434                  _send_string
                  0x00ee16                  __DefaultInterrupt
                  0x010000                  _para_minu
                  0x010070                  _para_maxu
                  0x0100e0                  _Decay_lookup1
                  0x010146                  _Decay_lookup2
                  0x0101ac                  _keyeqv
                  0x0101b8                  _lookup_table
                  0x0104a8                  _ar11
                  0x0104b6                  _ar12
                  0x0104cb                  _ar13
                  0x0104e0                  _ar14
                  0x0104f1                  _ar15
                  0x01050d                  _ar20
                  0x010522                  _mmatms
                  0x010526                  _mmatss
                  0x01052a                  _mmatci
                  0x01052e                  _mdiatwoptfive
                  0x010532                  _mdiathreepttwo
                  0x010536                  _mdiafourptzero
                  0x01053a                  _mdiafiveptzero
                  0x01053e                  _msevenzero
                  0x010545                  _msixzero
                  0x01054c                  _mcelwel
                  0x010553                  _mthreezero
                  0x01055a                  _mnicl
                  0x010561                  _matms
                  0x010565                  _matss
                  0x010569                  _matalu
                  0x01056d                  _diazeropteight
                  0x010571                  _diaoneptzero
                  0x010575                  _diaonepttwo
                  0x010579                  _diaoneptsix
                  0x01057d                  _gasarco2
                  0x010583                  _gasco2
                  0x010589                  _gasaro2
                  0x01058f                  _gasar
                  0x010595                  _ar51
                  0x0105aa                  _ar52
                  0x0105bf                  _ar53
                  0x0105d4                  _ar54
                  0x0105e9                  _ar55
                  0x0105fe                  _ar56
                  0x010613                  _ar21
                  0x010621                  _ar22
                  0x010636                  _ar23
                  0x01064b                  _ar30
                  0x010660                  _tmatss
                  0x010664                  _tmatdcu
                  0x010668                  _tdiaoneptsix
                  0x01066d                  _tdiatwoptfour
                  0x010672                  _tdiathreepttwo
                  0x010677                  _tdiafourpteight
                  0x01067c                  _tdiasixptfour
                  0x010681                  _tdiatwelvepteight
                  0x010686                  _tbutt
                  0x01068d                  _tlap
                  0x010694                  _tcorner
                  0x01069b                  _tfillet
                  0x0106a2                  _ar41
                  0x0106b0                  _ar42
                  0x0106c5                  _ar43
                  0x0106da                  _ar44
                  0x0106ea                  _ar50
                  0x0106ff                  _ar413
                  0x010725                  _ar421
                  0x010734                  _pmatms
                  0x01073c                  _pmat71t1
                  0x010744                  _pmat180r
                  0x01074c                  _pmatss18
                  0x010754                  _pmatss19
                  0x01075c                  _pmatalu4043
                  0x010764                  _pmatalu5356
                  0x01076c                  _pmatalu99
                  0x010774                  _pmatssfcaw1
                  0x01077c                  _pmatssfcaw2
                  0x010784                  _cMatMigTxt
                  0x0107ac                  _cMatMigRootTxt
                  0x0107d4                  _cMatTxt
                  0x01082c                  _cDiaTxt
                  0x010844                  _cGasTxt
                  0x01085c                  _cGasPercent
                  0x01087c                  _cGasRootPercent
                  0x01089c                  _ar0
                  0x0108b2                  _ar1
                  0x0108c1                  _ar2
                  0x0108d1                  _ar3
                  0x0108e6                  _mmmatgas
                  0x010936                  _autocurrent
                  0x01138c                  _autothickness
                  0x011de2                  _autovoltage
                  0x012838                  _mat_dia_electro
                  0x012874                  _mautocurrent
                  0x0128ee                  _mat_dia_joint
                  0x01291e                  _tautocurrent
                  0x012982                  _newpmmmatgas
                  0x012a42                  _factors
                  0x012bd2                  _newpautocurrent
                  0x01365e                  _newpautothickness
                  0x013ba4                  _newpautobasevtg
                  0x014630                  _newpulsemigparameter
                  0x014a18                  _max_Pwire_speed
                  0x014aa6                  _max_Gwire_speed
                  0x014b45                  _rootmmmatgas
                  0x014b96                  _rootautocurrent
                  0x0155ec                  _rootautothickness
                  0x016042                  _rootautovoltage
                  0x016a98                  _font
                  0x016ccc                  _adorrlogo
                  0xf8000a                  __FGS.sec

External Symbols in Program Memory (by name):

                  0x004ea8                  _ACK
                  0x00700a                  _ADC_INIT
                  0x004cf4                  _Calculate_CRC
                  0x005a20                  _Check_Updated_EEPROM
                  0x005502                  _Clear_EEPROM_Prog_Num_Locations
                  0x004914                  _CursorBlink
                  0x0100e0                  _Decay_lookup1
                  0x010146                  _Decay_lookup2
                  0x004926                  _Decode_querry
                  0x007382                  _Detect_error
                  0x005066                  _E2P_Write
                  0x000ca6                  _EEPROM_Erase_Write
                  0x000e52                  _EEPROM_Erase_Write_for_SaveRecall
                  0x000bc4                  _EEPROM_Read
                  0x000e12                  _EEPROM_Read_for_SaveRecall
                  0x003ecc                  _ENCODER_INIT
                  0x004f1e                  _I2C_Read
                  0x004de4                  _I2C_Read1
                  0x004ff6                  _I2C_ReadInt
                  0x004d42                  _I2C_Write
                  0x004d90                  _I2C_Write1
                  0x004d38                  _I2C_init
                  0x007254                  _INT12_INIT
                  0x0073de                  _LCD_mig_syn_data_write
                  0x007388                  _LCD_pulsemig_syn_data_write
                  0x00490e                  _MainScreenShow
                  0x004ed2                  _NOACK
                  0x0036e2                  _NumberUpdate
                  0x0003f6                  _PID
                  0x000444                  _PIDCoeffCalc
                  0x00042e                  _PIDInit
                  0x007112                  _PORTPIN_INIT
                  0x006fb4                  _PWM_INIT
                  0x006ebe                  _READ_PORTPIN
                  0x00313c                  _Reload_pulse_para
                  0x003ede                  _SCANENCODER1
                  0x003ffa                  _SCANENCODER2
                  0x004120                  _SCANENCODER3
                  0x006ec4                  _SPI_INIT
                  0x006ea0                  _SYSTEM_INIT
                  0x005054                  _SendACK
                  0x0070e4                  _Send_num
                  0x006f0a                  _TIMER1_INIT
                  0x006f2e                  _TIMER2_INIT
                  0x006f52                  _TIMER3_INIT
                  0x006f76                  _TIMER4_INIT
                  0x006f9a                  _TIMER5_INIT
                  0x007084                  _TRANS1
                  0x0070d0                  _TRANS2
                  0x007098                  _TRANSNUM
                  0x003118                  _Toggle_pin11
                  0x007070                  _UART1_INIT
                  0x0070ba                  _UART2_INIT
                  0x00491e                  _UpdateMacMenuScreenDataField
                  0x004bd6                  _UpdateParaFromHMI
                  0x004ca6                  _UpdateParaIntoHMI
                  0x0056c6                  _Write_Mig_Data_in_EEPROM
                  0x0055ac                  _Write_Mig_root_Data_in_EEPROM
                  0x0052f4                  _Write_in_EEPROM
                  0x002b12                  __ADCInterrupt
                  0x00ee16                  __DefaultInterrupt
                  0xf8000a                  __FGS.sec
                  0x001fec                  __INT1Interrupt
                  0x001ff4                  __INT2Interrupt
                  0x002d8a                  __SPI2Interrupt
                  0x002014                  __T1Interrupt
                  0x002488                  __T2Interrupt
                  0x002542                  __T3Interrupt
                  0x002ac0                  __T4Interrupt
                  0x002554                  __T5Interrupt
                  0x002da2                  __U1RXInterrupt
                  0x002e8e                  __U2RXInterrupt
                  0x002e08                  __U2TXInterrupt
                  0x0001d8                  ___addsf3
                  0x0002fa                  ___fixunssfsi
                  0x000180                  ___floatsisf
                  0x000292                  ___mulsf3
                  0x0001d6                  ___subsf3
                  0x000330                  ___udivsi3
                  0x0003ac                  __fPropagateNaN
                  0x0003be                  __fbopExit
                  0x0003c6                  __fbopReturnNaN
                  0x000350                  __fpack
                  0x0003cc                  __funpack
                  0x00039c                  __funpack2
                  0x000100                  __resetPRI
                  0x0033d0                  _ador_logo
                  0x016ccc                  _adorrlogo
                  0x0043aa                  _all0exceptcolumn1
                  0x0043b6                  _all0exceptcolumn2
                  0x0043c2                  _all0exceptcolumn3
                  0x00427e                  _allcolumnlogic1
                  0x004278                  _allrowlogic0
                  0x01089c                  _ar0
                  0x0108b2                  _ar1
                  0x0104a8                  _ar11
                  0x0104b6                  _ar12
                  0x0104cb                  _ar13
                  0x0104e0                  _ar14
                  0x0104f1                  _ar15
                  0x0108c1                  _ar2
                  0x01050d                  _ar20
                  0x010613                  _ar21
                  0x010621                  _ar22
                  0x010636                  _ar23
                  0x0108d1                  _ar3
                  0x01064b                  _ar30
                  0x0106a2                  _ar41
                  0x0106ff                  _ar413
                  0x0106b0                  _ar42
                  0x010725                  _ar421
                  0x0106c5                  _ar43
                  0x0106da                  _ar44
                  0x0106ea                  _ar50
                  0x010595                  _ar51
                  0x0105aa                  _ar52
                  0x0105bf                  _ar53
                  0x0105d4                  _ar54
                  0x0105e9                  _ar55
                  0x0105fe                  _ar56
                  0x010936                  _autocurrent
                  0x01138c                  _autothickness
                  0x011de2                  _autovoltage
                  0x004fb6                  _byteread
                  0x004e1c                  _bytewrite
                  0x01082c                  _cDiaTxt
                  0x01085c                  _cGasPercent
                  0x01087c                  _cGasRootPercent
                  0x010844                  _cGasTxt
                  0x0107ac                  _cMatMigRootTxt
                  0x010784                  _cMatMigTxt
                  0x0107d4                  _cMatTxt
                  0x001726                  _check_eeprom_values
                  0x004eea                  _clock_high
                  0x004ef4                  _clock_low
                  0x00338a                  _clrlcd
                  0x00437a                  _columnnum1
                  0x00323c                  _ctrloff
                  0x003764                  _currupdate
                  0x003474                  _data
                  0x0037d6                  _datafordebugonlcd
                  0x0043e2                  _debounce_delay
                  0x00329a                  _delay
                  0x004efe                  _delayI2C
                  0x006c6e                  _delay_pmig
                  0x0032b8                  _delayy
                  0x010579                  _diaoneptsix
                  0x010575                  _diaonepttwo
                  0x010571                  _diaoneptzero
                  0x01056d                  _diazeropteight
                  0x003e2c                  _disp_hex_dec_arclength2
                  0x003db0                  _disp_hex_dec_curr
                  0x003dee                  _disp_hex_dec_volt
                  0x00728a                  _display_Ldata
                  0x003bbe                  _display_data
                  0x003eac                  _display_start
                  0x005c80                  _display_update_for_pulse_para
                  0x003274                  _displayoff
                  0x00324e                  _displayon
                  0x003fa4                  _enc1_port
                  0x0040c8                  _enc2_port
                  0x0041e6                  _enc3_port
                  0x012a42                  _factors
                  0x000468                  _findmatindex
                  0x00049c                  _findmatindex1
                  0x0004cc                  _findmatindex2
                  0x0004f8                  _findmatindex3
                  0x001f88                  _findmatindex4
                  0x001fbc                  _findmatindex5
                  0x016a98                  _font
                  0x01058f                  _gasar
                  0x01057d                  _gasarco2
                  0x010589                  _gasaro2
                  0x010583                  _gasco2
                  0x004328                  _getkey
                  0x004264                  _init_keyportpin
                  0x0043f4                  _key_application
                  0x004310                  _key_press
                  0x0043ce                  _keydelay
                  0x0101ac                  _keyeqv
                  0x00423c                  _keypad_read
                  0x0042da                  _keyrelease
                  0x003a5c                  _latdata
                  0x003d1c                  _lcd_disp_hex_dec
                  0x003d5a                  _lcd_disp_hex_dec4digit
                  0x0031ca                  _lcd_int
                  0x003506                  _lcddatalat
                  0x003604                  _lcdput
                  0x003670                  _lcdput_bold
                  0x0035fe                  _lcdscan
                  0x0101b8                  _lookup_table
                  0x005e94                  _main
                  0x012838                  _mat_dia_electro
                  0x0128ee                  _mat_dia_joint
                  0x010569                  _matalu
                  0x010561                  _matms
                  0x010565                  _matss
                  0x012874                  _mautocurrent
                  0x014aa6                  _max_Gwire_speed
                  0x014a18                  _max_Pwire_speed
                  0x01054c                  _mcelwel
                  0x01053a                  _mdiafiveptzero
                  0x010536                  _mdiafourptzero
                  0x010532                  _mdiathreepttwo
                  0x01052e                  _mdiatwoptfive
                  0x005b46                  _mem_to_mem_write
                  0x01052a                  _mmatci
                  0x010522                  _mmatms
                  0x010526                  _mmatss
                  0x0108e6                  _mmmatgas
                  0x01055a                  _mnicl
                  0x01053e                  _msevenzero
                  0x010545                  _msixzero
                  0x010553                  _mthreezero
                  0x00059e                  _newfindmatindex4
                  0x0005d2                  _newfindmatindex5
                  0x0005f4                  _newfindmatindex6
                  0x000626                  _newfindmatindex7
                  0x013ba4                  _newpautobasevtg
                  0x012bd2                  _newpautocurrent
                  0x01365e                  _newpautothickness
                  0x012982                  _newpmmmatgas
                  0x014630                  _newpulsemigparameter
                  0x003756                  _noprogramupdate
                  0x003430                  _onlcd
                  0x010070                  _para_maxu
                  0x010000                  _para_minu
                  0x003748                  _peakampupdate
                  0x010744                  _pmat180r
                  0x01073c                  _pmat71t1
                  0x01075c                  _pmatalu4043
                  0x010764                  _pmatalu5356
                  0x01076c                  _pmatalu99
                  0x010734                  _pmatms
                  0x01074c                  _pmatss18
                  0x010754                  _pmatss19
                  0x010774                  _pmatssfcaw1
                  0x01077c                  _pmatssfcaw2
                  0x005ba6                  _program_check_from_mem
                  0x005d36                  _pulse_parameter_update
                  0x000f1c                  _read_current_status
                  0x005a7c                  _read_from_external_memory
                  0x000886                  _recall_mode_mem
                  0x014b96                  _rootautocurrent
                  0x0155ec                  _rootautothickness
                  0x016042                  _rootautovoltage
                  0x014b45                  _rootmmmatgas
                  0x00428a                  _scanrow
                  0x003312                  _selectcolumn1
                  0x00334c                  _selectcolumn2
                  0x0032e6                  _selectpage
                  0x007434                  _send_string
                  0x004e78                  _startBitGen
                  0x004e92                  _stopBitGen
                  0x01291e                  _tautocurrent
                  0x010686                  _tbutt
                  0x010694                  _tcorner
                  0x010677                  _tdiafourpteight
                  0x010668                  _tdiaoneptsix
                  0x01067c                  _tdiasixptfour
                  0x010672                  _tdiathreepttwo
                  0x010681                  _tdiatwelvepteight
                  0x01066d                  _tdiatwoptfour
                  0x01069b                  _tfillet
                  0x01068d                  _tlap
                  0x010664                  _tmatdcu
                  0x010660                  _tmatss
                  0x0071c6                  _transmittowf
                  0x00737a                  _trip_detection
                  0x0051d4                  _update_mat_dia_gas
                  0x005900                  _update_mig_mat_dia_gas
                  0x0057e0                  _update_mig_mat_dia_gas_root
                  0x006db4                  _updatedata
                  0x006e64                  _updatedata1
                  0x006cdc                  _updategcvparameter
                  0x006c84                  _updatemccparameter
                  0x006da4                  _updatemigparameter
                  0x006d64                  _updatepccparameter
                  0x006dac                  _updatepmigparameter
                  0x006cbc                  _updatetccparameter
                  0x001276                  _write_current_status
                  0x005096                  _write_in_external_memory
                  0x005d62                  _write_in_external_memory_updated_data
                  0x000656                  _write_mode_mem

Memory Configuration

Name             Origin             Length             Attributes
data             0x000800           0x001fa0           a !xr
program          0x000100           0x017f00           xr
reset            0x000000           0x000004  
ivt              0x000004           0x00007c  
aivt             0x000084           0x00007c  
__FOSC           0xf80000           0x000002  
__FWDT           0xf80002           0x000002  
__FBORPOR        0xf80004           0x000002  
__FBS            0xf80006           0x000002  
__FSS            0xf80008           0x000002  
__FGS            0xf8000a           0x000002  
__FUID0          0x8005c0           0x000002  
__FUID1          0x8005c2           0x000002  
__FUID2          0x8005c4           0x000002  
__FUID3          0x8005c6           0x000002  
eedata           0x7ff000           0x001000  
*default*        0x000000           0xffffffff  

Linker script and memory map

LOAD MAIN.o
LOAD c:/program files (x86)/microchip/mplab c30/bin/../lib\libdsp-coff.a
LOAD c:/program files (x86)/microchip/mplab c30/bin/../lib\libpic30-coff.a
LOAD c:/program files (x86)/microchip/mplab c30/bin/../lib\libm-coff.a
LOAD c:/program files (x86)/microchip/mplab c30/bin/../lib\libc-coff.a
                    0xf80000                  __FOSC = 0xf80000
                    0xf80002                  __FWDT = 0xf80002
                    0xf80004                  __FBORPOR = 0xf80004
                    0xf80006                  __FBS = 0xf80006
                    0xf80008                  __FSS = 0xf80008
                    0xf8000a                  __FGS = 0xf8000a
                    0x8005c0                  __FUID0 = 0x8005c0
                    0x8005c2                  __FUID1 = 0x8005c2
                    0x8005c4                  __FUID2 = 0x8005c4
                    0x8005c6                  __FUID3 = 0x8005c6
                    0x0000                  __RESET_BASE = 0x0
                    0x0004                  __IVT_BASE = 0x4
                    0x0084                  __AIVT_BASE = 0x84
                    0x0100                  __CODE_BASE = 0x100
                    0x0000                  __SFR_BASE = 0x0
                    0x0800                  __DATA_BASE = 0x800
                    0x1800                  __YDATA_BASE = 0x1800

.reset            0x000000          0x4
                  0x000000          0x2 SHORT 0x100 <code 336> (__reset)
                  0x000001          0x2 SHORT 0x4
                  0x000002          0x2 SHORT 0x0 ((<code 336> (__reset) >> 0x10) & 0x7f)
                  0x000003          0x2 SHORT 0x0

.text             0x000100       0x735e
 *(.handle)
 *(.libc)
 .libc            0x000100         0x80 c:/program files (x86)/microchip/mplab c30/bin/../lib\libpic30-coff.a(crt0.o)
                  0x000100                  _resetPRI
                  0x000100                  _reset
                  0x000114                  _psv_init
                  0x000124                  _data_init
 *(.libm)
 .libm            0x000180         0x56 c:/program files (x86)/microchip/mplab c30/bin/../lib\libm-coff.a(floatsisf.o)
                  0x000180                  __floatsisf
 .libm            0x0001d6         0xbc c:/program files (x86)/microchip/mplab c30/bin/../lib\libm-coff.a(addsf3.o)
                  0x0001d6                  __subsf3
                  0x0001d8                  __addsf3
 .libm            0x000292         0x68 c:/program files (x86)/microchip/mplab c30/bin/../lib\libm-coff.a(mulsf3.o)
                  0x000292                  __mulsf3
 .libm            0x0002fa         0x36 c:/program files (x86)/microchip/mplab c30/bin/../lib\libm-coff.a(fixunssfsi.o)
                  0x0002fa                  __fixunssfsi
 .libm            0x000330         0x20 c:/program files (x86)/microchip/mplab c30/bin/../lib\libm-coff.a(udivsi3.o)
                  0x000330                  __udivsi3
 .libm            0x000350         0x4c c:/program files (x86)/microchip/mplab c30/bin/../lib\libm-coff.a(fpack.o)
                  0x000350                  _fpack
 .libm            0x00039c         0x10 c:/program files (x86)/microchip/mplab c30/bin/../lib\libm-coff.a(funpack2.o)
                  0x00039c                  _funpack2
 .libm            0x0003ac         0x20 c:/program files (x86)/microchip/mplab c30/bin/../lib\libm-coff.a(futil.o)
                  0x0003ac                  _fPropagateNaN
                  0x0003be                  _fbopExit
                  0x0003c6                  _fbopReturnNaN
 .libm            0x0003cc         0x2a c:/program files (x86)/microchip/mplab c30/bin/../lib\libm-coff.a(funpack.o)
                  0x0003cc                  _funpack
 *(.libdsp)
 .libdsp          0x0003f6         0x72 c:/program files (x86)/microchip/mplab c30/bin/../lib\libdsp-coff.a(pid.obj)
                  0x0003f6                  PID
                  0x00042e                  PIDInit
                  0x000444                  PIDCoeffCalc
 *(.lib*)
 *(.text)
 .text            0x000468       0x6ff6 MAIN.o
                  0x000468                  findmatindex
                  0x00049c                  findmatindex1
                  0x0004cc                  findmatindex2
                  0x0004f8                  findmatindex3
                  0x00059e                  newfindmatindex4
                  0x0005d2                  newfindmatindex5
                  0x0005f4                  newfindmatindex6
                  0x000626                  newfindmatindex7
                  0x000656                  write_mode_mem
                  0x000886                  recall_mode_mem
                  0x000bc4                  EEPROM_Read
                  0x000ca6                  EEPROM_Erase_Write
                  0x000e12                  EEPROM_Read_for_SaveRecall
                  0x000e52                  EEPROM_Erase_Write_for_SaveRecall
                  0x000f1c                  read_current_status
                  0x001276                  write_current_status
                  0x001726                  check_eeprom_values
                  0x001f88                  findmatindex4
                  0x001fbc                  findmatindex5
                  0x001fec                  _INT1Interrupt
                  0x001ff4                  _INT2Interrupt
                  0x002014                  _T1Interrupt
                  0x002488                  _T2Interrupt
                  0x002542                  _T3Interrupt
                  0x002554                  _T5Interrupt
                  0x002ac0                  _T4Interrupt
                  0x002b12                  _ADCInterrupt
                  0x002d8a                  _SPI2Interrupt
                  0x002da2                  _U1RXInterrupt
                  0x002e08                  _U2TXInterrupt
                  0x002e8e                  _U2RXInterrupt
                  0x003118                  Toggle_pin11
                  0x00313c                  Reload_pulse_para
                  0x0031ca                  lcd_int
                  0x00323c                  ctrloff
                  0x00324e                  displayon
                  0x003274                  displayoff
                  0x00329a                  delay
                  0x0032b8                  delayy
                  0x0032e6                  selectpage
                  0x003312                  selectcolumn1
                  0x00334c                  selectcolumn2
                  0x00338a                  clrlcd
                  0x0033d0                  ador_logo
                  0x003430                  onlcd
                  0x003474                  data
                  0x003506                  lcddatalat
                  0x0035fe                  lcdscan
                  0x003604                  lcdput
                  0x003670                  lcdput_bold
                  0x0036e2                  NumberUpdate
                  0x003748                  peakampupdate
                  0x003756                  noprogramupdate
                  0x003764                  currupdate
                  0x0037d6                  datafordebugonlcd
                  0x003a5c                  latdata
                  0x003bbe                  display_data
                  0x003d1c                  lcd_disp_hex_dec
                  0x003d5a                  lcd_disp_hex_dec4digit
                  0x003db0                  disp_hex_dec_curr
                  0x003dee                  disp_hex_dec_volt
                  0x003e2c                  disp_hex_dec_arclength2
                  0x003eac                  display_start
                  0x003ecc                  ENCODER_INIT
                  0x003ede                  SCANENCODER1
                  0x003fa4                  enc1_port
                  0x003ffa                  SCANENCODER2
                  0x0040c8                  enc2_port
                  0x004120                  SCANENCODER3
                  0x0041e6                  enc3_port
                  0x00423c                  keypad_read
                  0x004264                  init_keyportpin
                  0x004278                  allrowlogic0
                  0x00427e                  allcolumnlogic1
                  0x00428a                  scanrow
                  0x0042da                  keyrelease
                  0x004310                  key_press
                  0x004328                  getkey
                  0x00437a                  columnnum1
                  0x0043aa                  all0exceptcolumn1
                  0x0043b6                  all0exceptcolumn2
                  0x0043c2                  all0exceptcolumn3
                  0x0043ce                  keydelay
                  0x0043e2                  debounce_delay
                  0x0043f4                  key_application
                  0x00490e                  MainScreenShow
                  0x004914                  CursorBlink
                  0x00491e                  UpdateMacMenuScreenDataField
                  0x004926                  Decode_querry
                  0x004bd6                  UpdateParaFromHMI
                  0x004ca6                  UpdateParaIntoHMI
                  0x004cf4                  Calculate_CRC
                  0x004d38                  I2C_init
                  0x004d42                  I2C_Write
                  0x004d90                  I2C_Write1
                  0x004de4                  I2C_Read1
                  0x004e1c                  bytewrite
                  0x004e78                  startBitGen
                  0x004e92                  stopBitGen
                  0x004ea8                  ACK
                  0x004ed2                  NOACK
                  0x004eea                  clock_high
                  0x004ef4                  clock_low
                  0x004efe                  delayI2C
                  0x004f1e                  I2C_Read
                  0x004fb6                  byteread
                  0x004ff6                  I2C_ReadInt
                  0x005054                  SendACK
                  0x005066                  E2P_Write
                  0x005096                  write_in_external_memory
                  0x0051d4                  update_mat_dia_gas
                  0x0052f4                  Write_in_EEPROM
                  0x005502                  Clear_EEPROM_Prog_Num_Locations
                  0x0055ac                  Write_Mig_root_Data_in_EEPROM
                  0x0056c6                  Write_Mig_Data_in_EEPROM
                  0x0057e0                  update_mig_mat_dia_gas_root
                  0x005900                  update_mig_mat_dia_gas
                  0x005a20                  Check_Updated_EEPROM
                  0x005a7c                  read_from_external_memory
                  0x005b46                  mem_to_mem_write
                  0x005ba6                  program_check_from_mem
                  0x005c80                  display_update_for_pulse_para
                  0x005d36                  pulse_parameter_update
                  0x005d62                  write_in_external_memory_updated_data
                  0x005e94                  main
                  0x006c6e                  delay_pmig
                  0x006c84                  updatemccparameter
                  0x006cbc                  updatetccparameter
                  0x006cdc                  updategcvparameter
                  0x006d64                  updatepccparameter
                  0x006da4                  updatemigparameter
                  0x006dac                  updatepmigparameter
                  0x006db4                  updatedata
                  0x006e64                  updatedata1
                  0x006ea0                  SYSTEM_INIT
                  0x006ebe                  READ_PORTPIN
                  0x006ec4                  SPI_INIT
                  0x006f0a                  TIMER1_INIT
                  0x006f2e                  TIMER2_INIT
                  0x006f52                  TIMER3_INIT
                  0x006f76                  TIMER4_INIT
                  0x006f9a                  TIMER5_INIT
                  0x006fb4                  PWM_INIT
                  0x00700a                  ADC_INIT
                  0x007070                  UART1_INIT
                  0x007084                  TRANS1
                  0x007098                  TRANSNUM
                  0x0070ba                  UART2_INIT
                  0x0070d0                  TRANS2
                  0x0070e4                  Send_num
                  0x007112                  PORTPIN_INIT
                  0x0071c6                  transmittowf
                  0x007254                  INT12_INIT
                  0x00728a                  display_Ldata
                  0x00737a                  trip_detection
                  0x007382                  Detect_error
                  0x007388                  LCD_pulsemig_syn_data_write
                  0x0073de                  LCD_mig_syn_data_write
                  0x007434                  send_string

usercode
 *(usercode)

__FOSC            0xf80000          0x2
 *(__FOSC.sec)
 __FOSC.sec       0xf80000          0x2 MAIN.o

__FWDT            0xf80002          0x2
 *(__FWDT.sec)
 __FWDT.sec       0xf80002          0x2 MAIN.o

__FBORPOR         0xf80004          0x2
 *(__FBORPOR.sec)
 __FBORPOR.sec    0xf80004          0x2 MAIN.o

__FBS
 *(__FBS.sec)

__FSS
 *(__FSS.sec)

__FGS             0xf8000a          0x2
 *(__FGS.sec)
 __FGS.sec        0xf8000a          0x2 FGS
                  0xf8000a                  _FGS.sec

__FUID0
 *(__FUID0.sec)

__FUID1
 *(__FUID1.sec)

__FUID2
 *(__FUID2.sec)

__FUID3
 *(__FUID3.sec)

user_eedata
 *(user_eedata)

userdata
 *(userdata)

.comment
 *(.comment)

.debug_info
 *(.debug_info)
 *(.gnu.linkonce.wi.*)

.debug_abbrev
 *(.debug_abbrev)

.debug_line
 *(.debug_line)

.debug_frame
 *(.debug_frame)

.debug_str
 *(.debug_str)

.debug_loc
 *(.debug_loc)

.debug_macinfo
 *(.debug_macinfo)

.debug_pubnames
 *(.debug_pubnames)

.debug_ranges
 *(.debug_ranges)

.debug_aranges
 *(.debug_aranges)

.ivt              0x000004         0x7c
                  0x000004          0x4 LONG 0xee16 DEFINED (__ReservedTrap0)?<code 336> (__ReservedTrap0):<code 336> (__DefaultInterrupt)
                  0x000006          0x4 LONG 0xee16 DEFINED (__OscillatorFail)?<code 336> (__OscillatorFail):<code 336> (__DefaultInterrupt)
                  0x000008          0x4 LONG 0xee16 DEFINED (__AddressError)?<code 336> (__AddressError):<code 336> (__DefaultInterrupt)
                  0x00000a          0x4 LONG 0xee16 DEFINED (__StackError)?<code 336> (__StackError):<code 336> (__DefaultInterrupt)
                  0x00000c          0x4 LONG 0xee16 DEFINED (__MathError)?<code 336> (__MathError):<code 336> (__DefaultInterrupt)
                  0x00000e          0x4 LONG 0xee16 DEFINED (__ReservedTrap5)?<code 336> (__ReservedTrap5):<code 336> (__DefaultInterrupt)
                  0x000010          0x4 LONG 0xee16 DEFINED (__ReservedTrap6)?<code 336> (__ReservedTrap6):<code 336> (__DefaultInterrupt)
                  0x000012          0x4 LONG 0xee16 DEFINED (__ReservedTrap7)?<code 336> (__ReservedTrap7):<code 336> (__DefaultInterrupt)
                  0x000014          0x4 LONG 0xee16 DEFINED (__INT0Interrupt)?<code 336> (__INT0Interrupt):<code 336> (__DefaultInterrupt)
                  0x000016          0x4 LONG 0xee16 DEFINED (__IC1Interrupt)?<code 336> (__IC1Interrupt):<code 336> (__DefaultInterrupt)
                  0x000018          0x4 LONG 0xee16 DEFINED (__OC1Interrupt)?<code 336> (__OC1Interrupt):<code 336> (__DefaultInterrupt)
                  0x00001a          0x4 LONG 0x2014 DEFINED (__T1Interrupt)?<code 336> (__T1Interrupt):<code 336> (__DefaultInterrupt)
                  0x00001c          0x4 LONG 0xee16 DEFINED (__IC2Interrupt)?<code 336> (__IC2Interrupt):<code 336> (__DefaultInterrupt)
                  0x00001e          0x4 LONG 0xee16 DEFINED (__OC2Interrupt)?<code 336> (__OC2Interrupt):<code 336> (__DefaultInterrupt)
                  0x000020          0x4 LONG 0x2488 DEFINED (__T2Interrupt)?<code 336> (__T2Interrupt):<code 336> (__DefaultInterrupt)
                  0x000022          0x4 LONG 0x2542 DEFINED (__T3Interrupt)?<code 336> (__T3Interrupt):<code 336> (__DefaultInterrupt)
                  0x000024          0x4 LONG 0xee16 DEFINED (__SPI1Interrupt)?<code 336> (__SPI1Interrupt):<code 336> (__DefaultInterrupt)
                  0x000026          0x4 LONG 0x2da2 DEFINED (__U1RXInterrupt)?<code 336> (__U1RXInterrupt):<code 336> (__DefaultInterrupt)
                  0x000028          0x4 LONG 0xee16 DEFINED (__U1TXInterrupt)?<code 336> (__U1TXInterrupt):<code 336> (__DefaultInterrupt)
                  0x00002a          0x4 LONG 0x2b12 DEFINED (__ADCInterrupt)?<code 336> (__ADCInterrupt):<code 336> (__DefaultInterrupt)
                  0x00002c          0x4 LONG 0xee16 DEFINED (__NVMInterrupt)?<code 336> (__NVMInterrupt):<code 336> (__DefaultInterrupt)
                  0x00002e          0x4 LONG 0xee16 DEFINED (__SI2CInterrupt)?<code 336> (__SI2CInterrupt):<code 336> (__DefaultInterrupt)
                  0x000030          0x4 LONG 0xee16 DEFINED (__MI2CInterrupt)?<code 336> (__MI2CInterrupt):<code 336> (__DefaultInterrupt)
                  0x000032          0x4 LONG 0xee16 DEFINED (__CNInterrupt)?<code 336> (__CNInterrupt):<code 336> (__DefaultInterrupt)
                  0x000034          0x4 LONG 0x1fec DEFINED (__INT1Interrupt)?<code 336> (__INT1Interrupt):<code 336> (__DefaultInterrupt)
                  0x000036          0x4 LONG 0xee16 DEFINED (__IC7Interrupt)?<code 336> (__IC7Interrupt):<code 336> (__DefaultInterrupt)
                  0x000038          0x4 LONG 0xee16 DEFINED (__IC8Interrupt)?<code 336> (__IC8Interrupt):<code 336> (__DefaultInterrupt)
                  0x00003a          0x4 LONG 0xee16 DEFINED (__OC3Interrupt)?<code 336> (__OC3Interrupt):<code 336> (__DefaultInterrupt)
                  0x00003c          0x4 LONG 0xee16 DEFINED (__OC4Interrupt)?<code 336> (__OC4Interrupt):<code 336> (__DefaultInterrupt)
                  0x00003e          0x4 LONG 0x2ac0 DEFINED (__T4Interrupt)?<code 336> (__T4Interrupt):<code 336> (__DefaultInterrupt)
                  0x000040          0x4 LONG 0x2554 DEFINED (__T5Interrupt)?<code 336> (__T5Interrupt):<code 336> (__DefaultInterrupt)
                  0x000042          0x4 LONG 0x1ff4 DEFINED (__INT2Interrupt)?<code 336> (__INT2Interrupt):<code 336> (__DefaultInterrupt)
                  0x000044          0x4 LONG 0x2e8e DEFINED (__U2RXInterrupt)?<code 336> (__U2RXInterrupt):<code 336> (__DefaultInterrupt)
                  0x000046          0x4 LONG 0x2e08 DEFINED (__U2TXInterrupt)?<code 336> (__U2TXInterrupt):<code 336> (__DefaultInterrupt)
                  0x000048          0x4 LONG 0x2d8a DEFINED (__SPI2Interrupt)?<code 336> (__SPI2Interrupt):<code 336> (__DefaultInterrupt)
                  0x00004a          0x4 LONG 0xee16 DEFINED (__C1Interrupt)?<code 336> (__C1Interrupt):<code 336> (__DefaultInterrupt)
                  0x00004c          0x4 LONG 0xee16 DEFINED (__IC3Interrupt)?<code 336> (__IC3Interrupt):<code 336> (__DefaultInterrupt)
                  0x00004e          0x4 LONG 0xee16 DEFINED (__IC4Interrupt)?<code 336> (__IC4Interrupt):<code 336> (__DefaultInterrupt)
                  0x000050          0x4 LONG 0xee16 DEFINED (__IC5Interrupt)?<code 336> (__IC5Interrupt):<code 336> (__DefaultInterrupt)
                  0x000052          0x4 LONG 0xee16 DEFINED (__IC6Interrupt)?<code 336> (__IC6Interrupt):<code 336> (__DefaultInterrupt)
                  0x000054          0x4 LONG 0xee16 DEFINED (__OC5Interrupt)?<code 336> (__OC5Interrupt):<code 336> (__DefaultInterrupt)
                  0x000056          0x4 LONG 0xee16 DEFINED (__OC6Interrupt)?<code 336> (__OC6Interrupt):<code 336> (__DefaultInterrupt)
                  0x000058          0x4 LONG 0xee16 DEFINED (__OC7Interrupt)?<code 336> (__OC7Interrupt):<code 336> (__DefaultInterrupt)
                  0x00005a          0x4 LONG 0xee16 DEFINED (__OC8Interrupt)?<code 336> (__OC8Interrupt):<code 336> (__DefaultInterrupt)
                  0x00005c          0x4 LONG 0xee16 DEFINED (__INT3Interrupt)?<code 336> (__INT3Interrupt):<code 336> (__DefaultInterrupt)
                  0x00005e          0x4 LONG 0xee16 DEFINED (__INT4Interrupt)?<code 336> (__INT4Interrupt):<code 336> (__DefaultInterrupt)
                  0x000060          0x4 LONG 0xee16 DEFINED (__C2Interrupt)?<code 336> (__C2Interrupt):<code 336> (__DefaultInterrupt)
                  0x000062          0x4 LONG 0xee16 DEFINED (__PWMInterrupt)?<code 336> (__PWMInterrupt):<code 336> (__DefaultInterrupt)
                  0x000064          0x4 LONG 0xee16 DEFINED (__QEIInterrupt)?<code 336> (__QEIInterrupt):<code 336> (__DefaultInterrupt)
                  0x000066          0x4 LONG 0xee16 DEFINED (__DCIInterrupt)?<code 336> (__DCIInterrupt):<code 336> (__DefaultInterrupt)
                  0x000068          0x4 LONG 0xee16 DEFINED (__LVDInterrupt)?<code 336> (__LVDInterrupt):<code 336> (__DefaultInterrupt)
                  0x00006a          0x4 LONG 0xee16 DEFINED (__FLTAInterrupt)?<code 336> (__FLTAInterrupt):<code 336> (__DefaultInterrupt)
                  0x00006c          0x4 LONG 0xee16 DEFINED (__FLTBInterrupt)?<code 336> (__FLTBInterrupt):<code 336> (__DefaultInterrupt)
                  0x00006e          0x4 LONG 0xee16 DEFINED (__Interrupt45)?<code 336> (__Interrupt45):<code 336> (__DefaultInterrupt)
                  0x000070          0x4 LONG 0xee16 DEFINED (__Interrupt46)?<code 336> (__Interrupt46):<code 336> (__DefaultInterrupt)
                  0x000072          0x4 LONG 0xee16 DEFINED (__Interrupt47)?<code 336> (__Interrupt47):<code 336> (__DefaultInterrupt)
                  0x000074          0x4 LONG 0xee16 DEFINED (__Interrupt48)?<code 336> (__Interrupt48):<code 336> (__DefaultInterrupt)
                  0x000076          0x4 LONG 0xee16 DEFINED (__Interrupt49)?<code 336> (__Interrupt49):<code 336> (__DefaultInterrupt)
                  0x000078          0x4 LONG 0xee16 DEFINED (__Interrupt50)?<code 336> (__Interrupt50):<code 336> (__DefaultInterrupt)
                  0x00007a          0x4 LONG 0xee16 DEFINED (__Interrupt51)?<code 336> (__Interrupt51):<code 336> (__DefaultInterrupt)
                  0x00007c          0x4 LONG 0xee16 DEFINED (__Interrupt52)?<code 336> (__Interrupt52):<code 336> (__DefaultInterrupt)
                  0x00007e          0x4 LONG 0xee16 DEFINED (__Interrupt53)?<code 336> (__Interrupt53):<code 336> (__DefaultInterrupt)

.aivt             0x000084         0x7c
                  0x000084          0x4 LONG 0xee16 DEFINED (__AltReservedTrap0)?<code 336> (__AltReservedTrap0):DEFINED (__ReservedTrap0)?<code 336> (__ReservedTrap0):<code 336> (__DefaultInterrupt)
                  0x000086          0x4 LONG 0xee16 DEFINED (__AltOscillatorFail)?<code 336> (__AltOscillatorFail):DEFINED (__OscillatorFail)?<code 336> (__OscillatorFail):<code 336> (__DefaultInterrupt)
                  0x000088          0x4 LONG 0xee16 DEFINED (__AltAddressError)?<code 336> (__AltAddressError):DEFINED (__AddressError)?<code 336> (__AddressError):<code 336> (__DefaultInterrupt)
                  0x00008a          0x4 LONG 0xee16 DEFINED (__AltStackError)?<code 336> (__AltStackError):DEFINED (__StackError)?<code 336> (__StackError):<code 336> (__DefaultInterrupt)
                  0x00008c          0x4 LONG 0xee16 DEFINED (__AltMathError)?<code 336> (__AltMathError):DEFINED (__MathError)?<code 336> (__MathError):<code 336> (__DefaultInterrupt)
                  0x00008e          0x4 LONG 0xee16 DEFINED (__AltReservedTrap5)?<code 336> (__AltReservedTrap5):DEFINED (__ReservedTrap5)?<code 336> (__ReservedTrap5):<code 336> (__DefaultInterrupt)
                  0x000090          0x4 LONG 0xee16 DEFINED (__AltReservedTrap6)?<code 336> (__AltReservedTrap6):DEFINED (__ReservedTrap6)?<code 336> (__ReservedTrap6):<code 336> (__DefaultInterrupt)
                  0x000092          0x4 LONG 0xee16 DEFINED (__AltReservedTrap7)?<code 336> (__AltReservedTrap7):DEFINED (__ReservedTrap7)?<code 336> (__ReservedTrap7):<code 336> (__DefaultInterrupt)
                  0x000094          0x4 LONG 0xee16 DEFINED (__AltINT0Interrupt)?<code 336> (__AltINT0Interrupt):DEFINED (__INT0Interrupt)?<code 336> (__INT0Interrupt):<code 336> (__DefaultInterrupt)
                  0x000096          0x4 LONG 0xee16 DEFINED (__AltIC1Interrupt)?<code 336> (__AltIC1Interrupt):DEFINED (__IC1Interrupt)?<code 336> (__IC1Interrupt):<code 336> (__DefaultInterrupt)
                  0x000098          0x4 LONG 0xee16 DEFINED (__AltOC1Interrupt)?<code 336> (__AltOC1Interrupt):DEFINED (__OC1Interrupt)?<code 336> (__OC1Interrupt):<code 336> (__DefaultInterrupt)
                  0x00009a          0x4 LONG 0x2014 DEFINED (__AltT1Interrupt)?<code 336> (__AltT1Interrupt):DEFINED (__T1Interrupt)?<code 336> (__T1Interrupt):<code 336> (__DefaultInterrupt)
                  0x00009c          0x4 LONG 0xee16 DEFINED (__AltIC2Interrupt)?<code 336> (__AltIC2Interrupt):DEFINED (__IC2Interrupt)?<code 336> (__IC2Interrupt):<code 336> (__DefaultInterrupt)
                  0x00009e          0x4 LONG 0xee16 DEFINED (__AltOC2Interrupt)?<code 336> (__AltOC2Interrupt):DEFINED (__OC2Interrupt)?<code 336> (__OC2Interrupt):<code 336> (__DefaultInterrupt)
                  0x0000a0          0x4 LONG 0x2488 DEFINED (__AltT2Interrupt)?<code 336> (__AltT2Interrupt):DEFINED (__T2Interrupt)?<code 336> (__T2Interrupt):<code 336> (__DefaultInterrupt)
                  0x0000a2          0x4 LONG 0x2542 DEFINED (__AltT3Interrupt)?<code 336> (__AltT3Interrupt):DEFINED (__T3Interrupt)?<code 336> (__T3Interrupt):<code 336> (__DefaultInterrupt)
                  0x0000a4          0x4 LONG 0xee16 DEFINED (__AltSPI1Interrupt)?<code 336> (__AltSPI1Interrupt):DEFINED (__SPI1Interrupt)?<code 336> (__SPI1Interrupt):<code 336> (__DefaultInterrupt)
                  0x0000a6          0x4 LONG 0x2da2 DEFINED (__AltU1RXInterrupt)?<code 336> (__AltU1RXInterrupt):DEFINED (__U1RXInterrupt)?<code 336> (__U1RXInterrupt):<code 336> (__DefaultInterrupt)
                  0x0000a8          0x4 LONG 0xee16 DEFINED (__AltU1TXInterrupt)?<code 336> (__AltU1TXInterrupt):DEFINED (__U1TXInterrupt)?<code 336> (__U1TXInterrupt):<code 336> (__DefaultInterrupt)
                  0x0000aa          0x4 LONG 0x2b12 DEFINED (__AltADCInterrupt)?<code 336> (__AltADCInterrupt):DEFINED (__ADCInterrupt)?<code 336> (__ADCInterrupt):<code 336> (__DefaultInterrupt)
                  0x0000ac          0x4 LONG 0xee16 DEFINED (__AltNVMInterrupt)?<code 336> (__AltNVMInterrupt):DEFINED (__NVMInterrupt)?<code 336> (__NVMInterrupt):<code 336> (__DefaultInterrupt)
                  0x0000ae          0x4 LONG 0xee16 DEFINED (__AltSI2CInterrupt)?<code 336> (__AltSI2CInterrupt):DEFINED (__SI2CInterrupt)?<code 336> (__SI2CInterrupt):<code 336> (__DefaultInterrupt)
                  0x0000b0          0x4 LONG 0xee16 DEFINED (__AltMI2CInterrupt)?<code 336> (__AltMI2CInterrupt):DEFINED (__MI2CInterrupt)?<code 336> (__MI2CInterrupt):<code 336> (__DefaultInterrupt)
                  0x0000b2          0x4 LONG 0xee16 DEFINED (__AltCNInterrupt)?<code 336> (__AltCNInterrupt):DEFINED (__CNInterrupt)?<code 336> (__CNInterrupt):<code 336> (__DefaultInterrupt)
                  0x0000b4          0x4 LONG 0x1fec DEFINED (__AltINT1Interrupt)?<code 336> (__AltINT1Interrupt):DEFINED (__INT1Interrupt)?<code 336> (__INT1Interrupt):<code 336> (__DefaultInterrupt)
                  0x0000b6          0x4 LONG 0xee16 DEFINED (__AltIC7Interrupt)?<code 336> (__AltIC7Interrupt):DEFINED (__IC7Interrupt)?<code 336> (__IC7Interrupt):<code 336> (__DefaultInterrupt)
                  0x0000b8          0x4 LONG 0xee16 DEFINED (__AltIC8Interrupt)?<code 336> (__AltIC8Interrupt):DEFINED (__IC8Interrupt)?<code 336> (__IC8Interrupt):<code 336> (__DefaultInterrupt)
                  0x0000ba          0x4 LONG 0xee16 DEFINED (__AltOC3Interrupt)?<code 336> (__AltOC3Interrupt):DEFINED (__OC3Interrupt)?<code 336> (__OC3Interrupt):<code 336> (__DefaultInterrupt)
                  0x0000bc          0x4 LONG 0xee16 DEFINED (__AltOC4Interrupt)?<code 336> (__AltOC4Interrupt):DEFINED (__OC4Interrupt)?<code 336> (__OC4Interrupt):<code 336> (__DefaultInterrupt)
                  0x0000be          0x4 LONG 0x2ac0 DEFINED (__AltT4Interrupt)?<code 336> (__AltT4Interrupt):DEFINED (__T4Interrupt)?<code 336> (__T4Interrupt):<code 336> (__DefaultInterrupt)
                  0x0000c0          0x4 LONG 0x2554 DEFINED (__AltT5Interrupt)?<code 336> (__AltT5Interrupt):DEFINED (__T5Interrupt)?<code 336> (__T5Interrupt):<code 336> (__DefaultInterrupt)
                  0x0000c2          0x4 LONG 0x1ff4 DEFINED (__AltINT2Interrupt)?<code 336> (__AltINT2Interrupt):DEFINED (__INT2Interrupt)?<code 336> (__INT2Interrupt):<code 336> (__DefaultInterrupt)
                  0x0000c4          0x4 LONG 0x2e8e DEFINED (__AltU2RXInterrupt)?<code 336> (__AltU2RXInterrupt):DEFINED (__U2RXInterrupt)?<code 336> (__U2RXInterrupt):<code 336> (__DefaultInterrupt)
                  0x0000c6          0x4 LONG 0x2e08 DEFINED (__AltU2TXInterrupt)?<code 336> (__AltU2TXInterrupt):DEFINED (__U2TXInterrupt)?<code 336> (__U2TXInterrupt):<code 336> (__DefaultInterrupt)
                  0x0000c8          0x4 LONG 0x2d8a DEFINED (__AltSPI2Interrupt)?<code 336> (__AltSPI2Interrupt):DEFINED (__SPI2Interrupt)?<code 336> (__SPI2Interrupt):<code 336> (__DefaultInterrupt)
                  0x0000ca          0x4 LONG 0xee16 DEFINED (__AltC1Interrupt)?<code 336> (__AltC1Interrupt):DEFINED (__C1Interrupt)?<code 336> (__C1Interrupt):<code 336> (__DefaultInterrupt)
                  0x0000cc          0x4 LONG 0xee16 DEFINED (__AltIC3Interrupt)?<code 336> (__AltIC3Interrupt):DEFINED (__IC3Interrupt)?<code 336> (__IC3Interrupt):<code 336> (__DefaultInterrupt)
                  0x0000ce          0x4 LONG 0xee16 DEFINED (__AltIC4Interrupt)?<code 336> (__AltIC4Interrupt):DEFINED (__IC4Interrupt)?<code 336> (__IC4Interrupt):<code 336> (__DefaultInterrupt)
                  0x0000d0          0x4 LONG 0xee16 DEFINED (__AltIC5Interrupt)?<code 336> (__AltIC5Interrupt):DEFINED (__IC5Interrupt)?<code 336> (__IC5Interrupt):<code 336> (__DefaultInterrupt)
                  0x0000d2          0x4 LONG 0xee16 DEFINED (__AltIC6Interrupt)?<code 336> (__AltIC6Interrupt):DEFINED (__IC6Interrupt)?<code 336> (__IC6Interrupt):<code 336> (__DefaultInterrupt)
                  0x0000d4          0x4 LONG 0xee16 DEFINED (__AltOC5Interrupt)?<code 336> (__AltOC5Interrupt):DEFINED (__OC5Interrupt)?<code 336> (__OC5Interrupt):<code 336> (__DefaultInterrupt)
                  0x0000d6          0x4 LONG 0xee16 DEFINED (__AltOC6Interrupt)?<code 336> (__AltOC6Interrupt):DEFINED (__OC6Interrupt)?<code 336> (__OC6Interrupt):<code 336> (__DefaultInterrupt)
                  0x0000d8          0x4 LONG 0xee16 DEFINED (__AltOC7Interrupt)?<code 336> (__AltOC7Interrupt):DEFINED (__OC7Interrupt)?<code 336> (__OC7Interrupt):<code 336> (__DefaultInterrupt)
                  0x0000da          0x4 LONG 0xee16 DEFINED (__AltOC8Interrupt)?<code 336> (__AltOC8Interrupt):DEFINED (__OC8Interrupt)?<code 336> (__OC8Interrupt):<code 336> (__DefaultInterrupt)
                  0x0000dc          0x4 LONG 0xee16 DEFINED (__AltINT3Interrupt)?<code 336> (__AltINT3Interrupt):DEFINED (__INT3Interrupt)?<code 336> (__INT3Interrupt):<code 336> (__DefaultInterrupt)
                  0x0000de          0x4 LONG 0xee16 DEFINED (__AltINT4Interrupt)?<code 336> (__AltINT4Interrupt):DEFINED (__INT4Interrupt)?<code 336> (__INT4Interrupt):<code 336> (__DefaultInterrupt)
                  0x0000e0          0x4 LONG 0xee16 DEFINED (__AltC2Interrupt)?<code 336> (__AltC2Interrupt):DEFINED (__C2Interrupt)?<code 336> (__C2Interrupt):<code 336> (__DefaultInterrupt)
                  0x0000e2          0x4 LONG 0xee16 DEFINED (__AltPWMInterrupt)?<code 336> (__AltPWMInterrupt):DEFINED (__PWMInterrupt)?<code 336> (__PWMInterrupt):<code 336> (__DefaultInterrupt)
                  0x0000e4          0x4 LONG 0xee16 DEFINED (__AltQEIInterrupt)?<code 336> (__AltQEIInterrupt):DEFINED (__QEIInterrupt)?<code 336> (__QEIInterrupt):<code 336> (__DefaultInterrupt)
                  0x0000e6          0x4 LONG 0xee16 DEFINED (__AltDCIInterrupt)?<code 336> (__AltDCIInterrupt):DEFINED (__DCIInterrupt)?<code 336> (__DCIInterrupt):<code 336> (__DefaultInterrupt)
                  0x0000e8          0x4 LONG 0xee16 DEFINED (__AltLVDInterrupt)?<code 336> (__AltLVDInterrupt):DEFINED (__LVDInterrupt)?<code 336> (__LVDInterrupt):<code 336> (__DefaultInterrupt)
                  0x0000ea          0x4 LONG 0xee16 DEFINED (__AltFLTAInterrupt)?<code 336> (__AltFLTAInterrupt):DEFINED (__FLTAInterrupt)?<code 336> (__FLTAInterrupt):<code 336> (__DefaultInterrupt)
                  0x0000ec          0x4 LONG 0xee16 DEFINED (__AltFLTBInterrupt)?<code 336> (__AltFLTBInterrupt):DEFINED (__FLTBInterrupt)?<code 336> (__FLTBInterrupt):<code 336> (__DefaultInterrupt)
                  0x0000ee          0x4 LONG 0xee16 DEFINED (__AltInterrupt45)?<code 336> (__AltInterrupt45):DEFINED (__Interrupt45)?<code 336> (__Interrupt45):<code 336> (__DefaultInterrupt)
                  0x0000f0          0x4 LONG 0xee16 DEFINED (__AltInterrupt46)?<code 336> (__AltInterrupt46):DEFINED (__Interrupt46)?<code 336> (__Interrupt46):<code 336> (__DefaultInterrupt)
                  0x0000f2          0x4 LONG 0xee16 DEFINED (__AltInterrupt47)?<code 336> (__AltInterrupt47):DEFINED (__Interrupt47)?<code 336> (__Interrupt47):<code 336> (__DefaultInterrupt)
                  0x0000f4          0x4 LONG 0xee16 DEFINED (__AltInterrupt48)?<code 336> (__AltInterrupt48):DEFINED (__Interrupt48)?<code 336> (__Interrupt48):<code 336> (__DefaultInterrupt)
                  0x0000f6          0x4 LONG 0xee16 DEFINED (__AltInterrupt49)?<code 336> (__AltInterrupt49):DEFINED (__Interrupt49)?<code 336> (__Interrupt49):<code 336> (__DefaultInterrupt)
                  0x0000f8          0x4 LONG 0xee16 DEFINED (__AltInterrupt50)?<code 336> (__AltInterrupt50):DEFINED (__Interrupt50)?<code 336> (__Interrupt50):<code 336> (__DefaultInterrupt)
                  0x0000fa          0x4 LONG 0xee16 DEFINED (__AltInterrupt51)?<code 336> (__AltInterrupt51):DEFINED (__Interrupt51)?<code 336> (__Interrupt51):<code 336> (__DefaultInterrupt)
                  0x0000fc          0x4 LONG 0xee16 DEFINED (__AltInterrupt52)?<code 336> (__AltInterrupt52):DEFINED (__Interrupt52)?<code 336> (__Interrupt52):<code 336> (__DefaultInterrupt)
                  0x0000fe          0x4 LONG 0xee16 DEFINED (__AltInterrupt53)?<code 336> (__AltInterrupt53):DEFINED (__Interrupt53)?<code 336> (__Interrupt53):<code 336> (__DefaultInterrupt)
                    0x0000                  WREG0 = 0x0
                    0x0000                  _WREG0 = 0x0
                    0x0002                  WREG1 = 0x2
                    0x0002                  _WREG1 = 0x2
                    0x0004                  WREG2 = 0x4
                    0x0004                  _WREG2 = 0x4
                    0x0006                  WREG3 = 0x6
                    0x0006                  _WREG3 = 0x6
                    0x0008                  WREG4 = 0x8
                    0x0008                  _WREG4 = 0x8
                    0x000a                  WREG5 = 0xa
                    0x000a                  _WREG5 = 0xa
                    0x000c                  WREG6 = 0xc
                    0x000c                  _WREG6 = 0xc
                    0x000e                  WREG7 = 0xe
                    0x000e                  _WREG7 = 0xe
                    0x0010                  WREG8 = 0x10
                    0x0010                  _WREG8 = 0x10
                    0x0012                  WREG9 = 0x12
                    0x0012                  _WREG9 = 0x12
                    0x0014                  WREG10 = 0x14
                    0x0014                  _WREG10 = 0x14
                    0x0016                  WREG11 = 0x16
                    0x0016                  _WREG11 = 0x16
                    0x0018                  WREG12 = 0x18
                    0x0018                  _WREG12 = 0x18
                    0x001a                  WREG13 = 0x1a
                    0x001a                  _WREG13 = 0x1a
                    0x001c                  WREG14 = 0x1c
                    0x001c                  _WREG14 = 0x1c
                    0x001e                  WREG15 = 0x1e
                    0x001e                  _WREG15 = 0x1e
                    0x0020                  SPLIM = 0x20
                    0x0020                  _SPLIM = 0x20
                    0x0022                  ACCAL = 0x22
                    0x0022                  _ACCAL = 0x22
                    0x0024                  ACCAH = 0x24
                    0x0024                  _ACCAH = 0x24
                    0x0026                  ACCAU = 0x26
                    0x0026                  _ACCAU = 0x26
                    0x0028                  ACCBL = 0x28
                    0x0028                  _ACCBL = 0x28
                    0x002a                  ACCBH = 0x2a
                    0x002a                  _ACCBH = 0x2a
                    0x002c                  ACCBU = 0x2c
                    0x002c                  _ACCBU = 0x2c
                    0x002e                  PCL = 0x2e
                    0x002e                  _PCL = 0x2e
                    0x0030                  PCH = 0x30
                    0x0030                  _PCH = 0x30
                    0x0032                  TBLPAG = 0x32
                    0x0032                  _TBLPAG = 0x32
                    0x0034                  PSVPAG = 0x34
                    0x0034                  _PSVPAG = 0x34
                    0x0036                  RCOUNT = 0x36
                    0x0036                  _RCOUNT = 0x36
                    0x0038                  DCOUNT = 0x38
                    0x0038                  _DCOUNT = 0x38
                    0x003a                  DOSTARTL = 0x3a
                    0x003a                  _DOSTARTL = 0x3a
                    0x003c                  DOSTARTH = 0x3c
                    0x003c                  _DOSTARTH = 0x3c
                    0x003e                  DOENDL = 0x3e
                    0x003e                  _DOENDL = 0x3e
                    0x0040                  DOENDH = 0x40
                    0x0040                  _DOENDH = 0x40
                    0x0042                  SR = 0x42
                    0x0042                  _SR = 0x42
                    0x0044                  CORCON = 0x44
                    0x0044                  _CORCON = 0x44
                    0x0046                  MODCON = 0x46
                    0x0046                  _MODCON = 0x46
                    0x0048                  XMODSRT = 0x48
                    0x0048                  _XMODSRT = 0x48
                    0x004a                  XMODEND = 0x4a
                    0x004a                  _XMODEND = 0x4a
                    0x004c                  YMODSRT = 0x4c
                    0x004c                  _YMODSRT = 0x4c
                    0x004e                  YMODEND = 0x4e
                    0x004e                  _YMODEND = 0x4e
                    0x0050                  XBREV = 0x50
                    0x0050                  _XBREV = 0x50
                    0x0052                  DISICNT = 0x52
                    0x0052                  _DISICNT = 0x52
                    0x0080                  INTCON1 = 0x80
                    0x0080                  _INTCON1 = 0x80
                    0x0082                  INTCON2 = 0x82
                    0x0082                  _INTCON2 = 0x82
                    0x0084                  IFS0 = 0x84
                    0x0084                  _IFS0 = 0x84
                    0x0086                  IFS1 = 0x86
                    0x0086                  _IFS1 = 0x86
                    0x0088                  IFS2 = 0x88
                    0x0088                  _IFS2 = 0x88
                    0x008c                  IEC0 = 0x8c
                    0x008c                  _IEC0 = 0x8c
                    0x008e                  IEC1 = 0x8e
                    0x008e                  _IEC1 = 0x8e
                    0x0090                  IEC2 = 0x90
                    0x0090                  _IEC2 = 0x90
                    0x0094                  IPC0 = 0x94
                    0x0094                  _IPC0 = 0x94
                    0x0096                  IPC1 = 0x96
                    0x0096                  _IPC1 = 0x96
                    0x0098                  IPC2 = 0x98
                    0x0098                  _IPC2 = 0x98
                    0x009a                  IPC3 = 0x9a
                    0x009a                  _IPC3 = 0x9a
                    0x009c                  IPC4 = 0x9c
                    0x009c                  _IPC4 = 0x9c
                    0x009e                  IPC5 = 0x9e
                    0x009e                  _IPC5 = 0x9e
                    0x00a0                  IPC6 = 0xa0
                    0x00a0                  _IPC6 = 0xa0
                    0x00a2                  IPC7 = 0xa2
                    0x00a2                  _IPC7 = 0xa2
                    0x00a4                  IPC8 = 0xa4
                    0x00a4                  _IPC8 = 0xa4
                    0x00a6                  IPC9 = 0xa6
                    0x00a6                  _IPC9 = 0xa6
                    0x00a8                  IPC10 = 0xa8
                    0x00a8                  _IPC10 = 0xa8
                    0x00b0                  INTTREG = 0xb0
                    0x00b0                  _INTTREG = 0xb0
                    0x00c0                  CNEN1 = 0xc0
                    0x00c0                  _CNEN1 = 0xc0
                    0x00c2                  CNEN2 = 0xc2
                    0x00c2                  _CNEN2 = 0xc2
                    0x00c4                  CNPU1 = 0xc4
                    0x00c4                  _CNPU1 = 0xc4
                    0x00c6                  CNPU2 = 0xc6
                    0x00c6                  _CNPU2 = 0xc6
                    0x0100                  TMR1 = 0x100
                    0x0100                  _TMR1 = 0x100
                    0x0102                  PR1 = 0x102
                    0x0102                  _PR1 = 0x102
                    0x0104                  T1CON = 0x104
                    0x0104                  _T1CON = 0x104
                    0x0106                  TMR2 = 0x106
                    0x0106                  _TMR2 = 0x106
                    0x0108                  TMR3HLD = 0x108
                    0x0108                  _TMR3HLD = 0x108
                    0x010a                  TMR3 = 0x10a
                    0x010a                  _TMR3 = 0x10a
                    0x010c                  PR2 = 0x10c
                    0x010c                  _PR2 = 0x10c
                    0x010e                  PR3 = 0x10e
                    0x010e                  _PR3 = 0x10e
                    0x0110                  T2CON = 0x110
                    0x0110                  _T2CON = 0x110
                    0x0112                  T3CON = 0x112
                    0x0112                  _T3CON = 0x112
                    0x0114                  TMR4 = 0x114
                    0x0114                  _TMR4 = 0x114
                    0x0116                  TMR5HLD = 0x116
                    0x0116                  _TMR5HLD = 0x116
                    0x0118                  TMR5 = 0x118
                    0x0118                  _TMR5 = 0x118
                    0x011a                  PR4 = 0x11a
                    0x011a                  _PR4 = 0x11a
                    0x011c                  PR5 = 0x11c
                    0x011c                  _PR5 = 0x11c
                    0x011e                  T4CON = 0x11e
                    0x011e                  _T4CON = 0x11e
                    0x0120                  T5CON = 0x120
                    0x0120                  _T5CON = 0x120
                    0x0140                  IC1BUF = 0x140
                    0x0140                  _IC1BUF = 0x140
                    0x0142                  IC1CON = 0x142
                    0x0142                  _IC1CON = 0x142
                    0x0144                  IC2BUF = 0x144
                    0x0144                  _IC2BUF = 0x144
                    0x0146                  IC2CON = 0x146
                    0x0146                  _IC2CON = 0x146
                    0x0148                  IC3BUF = 0x148
                    0x0148                  _IC3BUF = 0x148
                    0x014a                  IC3CON = 0x14a
                    0x014a                  _IC3CON = 0x14a
                    0x014c                  IC4BUF = 0x14c
                    0x014c                  _IC4BUF = 0x14c
                    0x014e                  IC4CON = 0x14e
                    0x014e                  _IC4CON = 0x14e
                    0x0150                  IC5BUF = 0x150
                    0x0150                  _IC5BUF = 0x150
                    0x0152                  IC5CON = 0x152
                    0x0152                  _IC5CON = 0x152
                    0x0154                  IC6BUF = 0x154
                    0x0154                  _IC6BUF = 0x154
                    0x0156                  IC6CON = 0x156
                    0x0156                  _IC6CON = 0x156
                    0x0158                  IC7BUF = 0x158
                    0x0158                  _IC7BUF = 0x158
                    0x015a                  IC7CON = 0x15a
                    0x015a                  _IC7CON = 0x15a
                    0x015c                  IC8BUF = 0x15c
                    0x015c                  _IC8BUF = 0x15c
                    0x015e                  IC8CON = 0x15e
                    0x015e                  _IC8CON = 0x15e
                    0x0180                  OC1RS = 0x180
                    0x0180                  _OC1RS = 0x180
                    0x0182                  OC1R = 0x182
                    0x0182                  _OC1R = 0x182
                    0x0184                  OC1CON = 0x184
                    0x0184                  _OC1CON = 0x184
                    0x0186                  OC2RS = 0x186
                    0x0186                  _OC2RS = 0x186
                    0x0188                  OC2R = 0x188
                    0x0188                  _OC2R = 0x188
                    0x018a                  OC2CON = 0x18a
                    0x018a                  _OC2CON = 0x18a
                    0x018c                  OC3RS = 0x18c
                    0x018c                  _OC3RS = 0x18c
                    0x018e                  OC3R = 0x18e
                    0x018e                  _OC3R = 0x18e
                    0x0190                  OC3CON = 0x190
                    0x0190                  _OC3CON = 0x190
                    0x0192                  OC4RS = 0x192
                    0x0192                  _OC4RS = 0x192
                    0x0194                  OC4R = 0x194
                    0x0194                  _OC4R = 0x194
                    0x0196                  OC4CON = 0x196
                    0x0196                  _OC4CON = 0x196
                    0x0198                  OC5RS = 0x198
                    0x0198                  _OC5RS = 0x198
                    0x019a                  OC5R = 0x19a
                    0x019a                  _OC5R = 0x19a
                    0x019c                  OC5CON = 0x19c
                    0x019c                  _OC5CON = 0x19c
                    0x019e                  OC6RS = 0x19e
                    0x019e                  _OC6RS = 0x19e
                    0x01a0                  OC6R = 0x1a0
                    0x01a0                  _OC6R = 0x1a0
                    0x01a2                  OC6CON = 0x1a2
                    0x01a2                  _OC6CON = 0x1a2
                    0x01a4                  OC7RS = 0x1a4
                    0x01a4                  _OC7RS = 0x1a4
                    0x01a6                  OC7R = 0x1a6
                    0x01a6                  _OC7R = 0x1a6
                    0x01a8                  OC7CON = 0x1a8
                    0x01a8                  _OC7CON = 0x1a8
                    0x01aa                  OC8RS = 0x1aa
                    0x01aa                  _OC8RS = 0x1aa
                    0x01ac                  OC8R = 0x1ac
                    0x01ac                  _OC8R = 0x1ac
                    0x01ae                  OC8CON = 0x1ae
                    0x01ae                  _OC8CON = 0x1ae
                    0x0200                  I2CRCV = 0x200
                    0x0200                  _I2CRCV = 0x200
                    0x0202                  I2CTRN = 0x202
                    0x0202                  _I2CTRN = 0x202
                    0x0204                  I2CBRG = 0x204
                    0x0204                  _I2CBRG = 0x204
                    0x0206                  I2CCON = 0x206
                    0x0206                  _I2CCON = 0x206
                    0x0208                  I2CSTAT = 0x208
                    0x0208                  _I2CSTAT = 0x208
                    0x020a                  I2CADD = 0x20a
                    0x020a                  _I2CADD = 0x20a
                    0x020c                  U1MODE = 0x20c
                    0x020c                  _U1MODE = 0x20c
                    0x020e                  U1STA = 0x20e
                    0x020e                  _U1STA = 0x20e
                    0x0210                  U1TXREG = 0x210
                    0x0210                  _U1TXREG = 0x210
                    0x0212                  U1RXREG = 0x212
                    0x0212                  _U1RXREG = 0x212
                    0x0214                  U1BRG = 0x214
                    0x0214                  _U1BRG = 0x214
                    0x0216                  U2MODE = 0x216
                    0x0216                  _U2MODE = 0x216
                    0x0218                  U2STA = 0x218
                    0x0218                  _U2STA = 0x218
                    0x021a                  U2TXREG = 0x21a
                    0x021a                  _U2TXREG = 0x21a
                    0x021c                  U2RXREG = 0x21c
                    0x021c                  _U2RXREG = 0x21c
                    0x021e                  U2BRG = 0x21e
                    0x021e                  _U2BRG = 0x21e
                    0x0220                  SPI1STAT = 0x220
                    0x0220                  _SPI1STAT = 0x220
                    0x0222                  SPI1CON = 0x222
                    0x0222                  _SPI1CON = 0x222
                    0x0224                  SPI1BUF = 0x224
                    0x0224                  _SPI1BUF = 0x224
                    0x0226                  SPI2STAT = 0x226
                    0x0226                  _SPI2STAT = 0x226
                    0x0228                  SPI2CON = 0x228
                    0x0228                  _SPI2CON = 0x228
                    0x022a                  SPI2BUF = 0x22a
                    0x022a                  _SPI2BUF = 0x22a
                    0x0240                  DCICON1 = 0x240
                    0x0240                  _DCICON1 = 0x240
                    0x0242                  DCICON2 = 0x242
                    0x0242                  _DCICON2 = 0x242
                    0x0244                  DCICON3 = 0x244
                    0x0244                  _DCICON3 = 0x244
                    0x0246                  DCISTAT = 0x246
                    0x0246                  _DCISTAT = 0x246
                    0x0248                  TSCON = 0x248
                    0x0248                  _TSCON = 0x248
                    0x024c                  RSCON = 0x24c
                    0x024c                  _RSCON = 0x24c
                    0x0250                  RXBUF0 = 0x250
                    0x0250                  _RXBUF0 = 0x250
                    0x0252                  RXBUF1 = 0x252
                    0x0252                  _RXBUF1 = 0x252
                    0x0254                  RXBUF2 = 0x254
                    0x0254                  _RXBUF2 = 0x254
                    0x0256                  RXBUF3 = 0x256
                    0x0256                  _RXBUF3 = 0x256
                    0x0258                  TXBUF0 = 0x258
                    0x0258                  _TXBUF0 = 0x258
                    0x025a                  TXBUF1 = 0x25a
                    0x025a                  _TXBUF1 = 0x25a
                    0x025c                  TXBUF2 = 0x25c
                    0x025c                  _TXBUF2 = 0x25c
                    0x025e                  TXBUF3 = 0x25e
                    0x025e                  _TXBUF3 = 0x25e
                    0x0280                  ADCBUF0 = 0x280
                    0x0280                  _ADCBUF0 = 0x280
                    0x0282                  ADCBUF1 = 0x282
                    0x0282                  _ADCBUF1 = 0x282
                    0x0284                  ADCBUF2 = 0x284
                    0x0284                  _ADCBUF2 = 0x284
                    0x0286                  ADCBUF3 = 0x286
                    0x0286                  _ADCBUF3 = 0x286
                    0x0288                  ADCBUF4 = 0x288
                    0x0288                  _ADCBUF4 = 0x288
                    0x028a                  ADCBUF5 = 0x28a
                    0x028a                  _ADCBUF5 = 0x28a
                    0x028c                  ADCBUF6 = 0x28c
                    0x028c                  _ADCBUF6 = 0x28c
                    0x028e                  ADCBUF7 = 0x28e
                    0x028e                  _ADCBUF7 = 0x28e
                    0x0290                  ADCBUF8 = 0x290
                    0x0290                  _ADCBUF8 = 0x290
                    0x0292                  ADCBUF9 = 0x292
                    0x0292                  _ADCBUF9 = 0x292
                    0x0294                  ADCBUFA = 0x294
                    0x0294                  _ADCBUFA = 0x294
                    0x0296                  ADCBUFB = 0x296
                    0x0296                  _ADCBUFB = 0x296
                    0x0298                  ADCBUFC = 0x298
                    0x0298                  _ADCBUFC = 0x298
                    0x029a                  ADCBUFD = 0x29a
                    0x029a                  _ADCBUFD = 0x29a
                    0x029c                  ADCBUFE = 0x29c
                    0x029c                  _ADCBUFE = 0x29c
                    0x029e                  ADCBUFF = 0x29e
                    0x029e                  _ADCBUFF = 0x29e
                    0x02a0                  ADCON1 = 0x2a0
                    0x02a0                  _ADCON1 = 0x2a0
                    0x02a2                  ADCON2 = 0x2a2
                    0x02a2                  _ADCON2 = 0x2a2
                    0x02a4                  ADCON3 = 0x2a4
                    0x02a4                  _ADCON3 = 0x2a4
                    0x02a6                  ADCHS = 0x2a6
                    0x02a6                  _ADCHS = 0x2a6
                    0x02a8                  ADPCFG = 0x2a8
                    0x02a8                  _ADPCFG = 0x2a8
                    0x02aa                  ADCSSL = 0x2aa
                    0x02aa                  _ADCSSL = 0x2aa
                    0x02c0                  TRISA = 0x2c0
                    0x02c0                  _TRISA = 0x2c0
                    0x02c2                  PORTA = 0x2c2
                    0x02c2                  _PORTA = 0x2c2
                    0x02c4                  LATA = 0x2c4
                    0x02c4                  _LATA = 0x2c4
                    0x02c6                  TRISB = 0x2c6
                    0x02c6                  _TRISB = 0x2c6
                    0x02c8                  PORTB = 0x2c8
                    0x02c8                  _PORTB = 0x2c8
                    0x02ca                  LATB = 0x2ca
                    0x02ca                  _LATB = 0x2ca
                    0x02cc                  TRISC = 0x2cc
                    0x02cc                  _TRISC = 0x2cc
                    0x02ce                  PORTC = 0x2ce
                    0x02ce                  _PORTC = 0x2ce
                    0x02d0                  LATC = 0x2d0
                    0x02d0                  _LATC = 0x2d0
                    0x02d2                  TRISD = 0x2d2
                    0x02d2                  _TRISD = 0x2d2
                    0x02d4                  PORTD = 0x2d4
                    0x02d4                  _PORTD = 0x2d4
                    0x02d6                  LATD = 0x2d6
                    0x02d6                  _LATD = 0x2d6
                    0x02de                  TRISF = 0x2de
                    0x02de                  _TRISF = 0x2de
                    0x02e0                  PORTF = 0x2e0
                    0x02e0                  _PORTF = 0x2e0
                    0x02e2                  LATF = 0x2e2
                    0x02e2                  _LATF = 0x2e2
                    0x02e4                  TRISG = 0x2e4
                    0x02e4                  _TRISG = 0x2e4
                    0x02e6                  PORTG = 0x2e6
                    0x02e6                  _PORTG = 0x2e6
                    0x02e8                  LATG = 0x2e8
                    0x02e8                  _LATG = 0x2e8
                    0x0300                  C1RXF0SID = 0x300
                    0x0300                  _C1RXF0SID = 0x300
                    0x0302                  C1RXF0EIDH = 0x302
                    0x0302                  _C1RXF0EIDH = 0x302
                    0x0304                  C1RXF0EIDL = 0x304
                    0x0304                  _C1RXF0EIDL = 0x304
                    0x0308                  C1RXF1SID = 0x308
                    0x0308                  _C1RXF1SID = 0x308
                    0x030a                  C1RXF1EIDH = 0x30a
                    0x030a                  _C1RXF1EIDH = 0x30a
                    0x030c                  C1RXF1EIDL = 0x30c
                    0x030c                  _C1RXF1EIDL = 0x30c
                    0x0310                  C1RXF2SID = 0x310
                    0x0310                  _C1RXF2SID = 0x310
                    0x0312                  C1RXF2EIDH = 0x312
                    0x0312                  _C1RXF2EIDH = 0x312
                    0x0314                  C1RXF2EIDL = 0x314
                    0x0314                  _C1RXF2EIDL = 0x314
                    0x0318                  C1RXF3SID = 0x318
                    0x0318                  _C1RXF3SID = 0x318
                    0x031a                  C1RXF3EIDH = 0x31a
                    0x031a                  _C1RXF3EIDH = 0x31a
                    0x031c                  C1RXF3EIDL = 0x31c
                    0x031c                  _C1RXF3EIDL = 0x31c
                    0x0320                  C1RXF4SID = 0x320
                    0x0320                  _C1RXF4SID = 0x320
                    0x0322                  C1RXF4EIDH = 0x322
                    0x0322                  _C1RXF4EIDH = 0x322
                    0x0324                  C1RXF4EIDL = 0x324
                    0x0324                  _C1RXF4EIDL = 0x324
                    0x0328                  C1RXF5SID = 0x328
                    0x0328                  _C1RXF5SID = 0x328
                    0x032a                  C1RXF5EIDH = 0x32a
                    0x032a                  _C1RXF5EIDH = 0x32a
                    0x032c                  C1RXF5EIDL = 0x32c
                    0x032c                  _C1RXF5EIDL = 0x32c
                    0x0330                  C1RXM0SID = 0x330
                    0x0330                  _C1RXM0SID = 0x330
                    0x0332                  C1RXM0EIDH = 0x332
                    0x0332                  _C1RXM0EIDH = 0x332
                    0x0334                  C1RXM0EIDL = 0x334
                    0x0334                  _C1RXM0EIDL = 0x334
                    0x0338                  C1RXM1SID = 0x338
                    0x0338                  _C1RXM1SID = 0x338
                    0x033a                  C1RXM1EIDH = 0x33a
                    0x033a                  _C1RXM1EIDH = 0x33a
                    0x033c                  C1RXM1EIDL = 0x33c
                    0x033c                  _C1RXM1EIDL = 0x33c
                    0x0340                  C1TX2SID = 0x340
                    0x0340                  _C1TX2SID = 0x340
                    0x0342                  C1TX2EID = 0x342
                    0x0342                  _C1TX2EID = 0x342
                    0x0344                  C1TX2DLC = 0x344
                    0x0344                  _C1TX2DLC = 0x344
                    0x0346                  C1TX2B1 = 0x346
                    0x0346                  _C1TX2B1 = 0x346
                    0x0348                  C1TX2B2 = 0x348
                    0x0348                  _C1TX2B2 = 0x348
                    0x034a                  C1TX2B3 = 0x34a
                    0x034a                  _C1TX2B3 = 0x34a
                    0x034c                  C1TX2B4 = 0x34c
                    0x034c                  _C1TX2B4 = 0x34c
                    0x034e                  C1TX2CON = 0x34e
                    0x034e                  _C1TX2CON = 0x34e
                    0x0350                  C1TX1SID = 0x350
                    0x0350                  _C1TX1SID = 0x350
                    0x0352                  C1TX1EID = 0x352
                    0x0352                  _C1TX1EID = 0x352
                    0x0354                  C1TX1DLC = 0x354
                    0x0354                  _C1TX1DLC = 0x354
                    0x0356                  C1TX1B1 = 0x356
                    0x0356                  _C1TX1B1 = 0x356
                    0x0358                  C1TX1B2 = 0x358
                    0x0358                  _C1TX1B2 = 0x358
                    0x035a                  C1TX1B3 = 0x35a
                    0x035a                  _C1TX1B3 = 0x35a
                    0x035c                  C1TX1B4 = 0x35c
                    0x035c                  _C1TX1B4 = 0x35c
                    0x035e                  C1TX1CON = 0x35e
                    0x035e                  _C1TX1CON = 0x35e
                    0x0360                  C1TX0SID = 0x360
                    0x0360                  _C1TX0SID = 0x360
                    0x0362                  C1TX0EID = 0x362
                    0x0362                  _C1TX0EID = 0x362
                    0x0364                  C1TX0DLC = 0x364
                    0x0364                  _C1TX0DLC = 0x364
                    0x0366                  C1TX0B1 = 0x366
                    0x0366                  _C1TX0B1 = 0x366
                    0x0368                  C1TX0B2 = 0x368
                    0x0368                  _C1TX0B2 = 0x368
                    0x036a                  C1TX0B3 = 0x36a
                    0x036a                  _C1TX0B3 = 0x36a
                    0x036c                  C1TX0B4 = 0x36c
                    0x036c                  _C1TX0B4 = 0x36c
                    0x036e                  C1TX0CON = 0x36e
                    0x036e                  _C1TX0CON = 0x36e
                    0x0370                  C1RX1SID = 0x370
                    0x0370                  _C1RX1SID = 0x370
                    0x0372                  C1RX1EID = 0x372
                    0x0372                  _C1RX1EID = 0x372
                    0x0374                  C1RX1DLC = 0x374
                    0x0374                  _C1RX1DLC = 0x374
                    0x0376                  C1RX1B1 = 0x376
                    0x0376                  _C1RX1B1 = 0x376
                    0x0378                  C1RX1B2 = 0x378
                    0x0378                  _C1RX1B2 = 0x378
                    0x037a                  C1RX1B3 = 0x37a
                    0x037a                  _C1RX1B3 = 0x37a
                    0x037c                  C1RX1B4 = 0x37c
                    0x037c                  _C1RX1B4 = 0x37c
                    0x037e                  C1RX1CON = 0x37e
                    0x037e                  _C1RX1CON = 0x37e
                    0x0380                  C1RX0SID = 0x380
                    0x0380                  _C1RX0SID = 0x380
                    0x0382                  C1RX0EID = 0x382
                    0x0382                  _C1RX0EID = 0x382
                    0x0384                  C1RX0DLC = 0x384
                    0x0384                  _C1RX0DLC = 0x384
                    0x0386                  C1RX0B1 = 0x386
                    0x0386                  _C1RX0B1 = 0x386
                    0x0388                  C1RX0B2 = 0x388
                    0x0388                  _C1RX0B2 = 0x388
                    0x038a                  C1RX0B3 = 0x38a
                    0x038a                  _C1RX0B3 = 0x38a
                    0x038c                  C1RX0B4 = 0x38c
                    0x038c                  _C1RX0B4 = 0x38c
                    0x038e                  C1RX0CON = 0x38e
                    0x038e                  _C1RX0CON = 0x38e
                    0x0390                  C1CTRL = 0x390
                    0x0390                  _C1CTRL = 0x390
                    0x0392                  C1CFG1 = 0x392
                    0x0392                  _C1CFG1 = 0x392
                    0x0394                  C1CFG2 = 0x394
                    0x0394                  _C1CFG2 = 0x394
                    0x0396                  C1INTF = 0x396
                    0x0396                  _C1INTF = 0x396
                    0x0398                  C1INTE = 0x398
                    0x0398                  _C1INTE = 0x398
                    0x039a                  C1EC = 0x39a
                    0x039a                  _C1EC = 0x39a
                    0x039a                  C1RERRCNT = 0x39a
                    0x039a                  _C1RERRCNT = 0x39a
                    0x039b                  C1TERRCNT = 0x39b
                    0x039b                  _C1TERRCNT = 0x39b
                    0x03c0                  C2RXF0SID = 0x3c0
                    0x03c0                  _C2RXF0SID = 0x3c0
                    0x03c2                  C2RXF0EIDH = 0x3c2
                    0x03c2                  _C2RXF0EIDH = 0x3c2
                    0x03c4                  C2RXF0EIDL = 0x3c4
                    0x03c4                  _C2RXF0EIDL = 0x3c4
                    0x03c8                  C2RXF1SID = 0x3c8
                    0x03c8                  _C2RXF1SID = 0x3c8
                    0x03ca                  C2RXF1EIDH = 0x3ca
                    0x03ca                  _C2RXF1EIDH = 0x3ca
                    0x03cc                  C2RXF1EIDL = 0x3cc
                    0x03cc                  _C2RXF1EIDL = 0x3cc
                    0x03d0                  C2RXF2SID = 0x3d0
                    0x03d0                  _C2RXF2SID = 0x3d0
                    0x03d2                  C2RXF2EIDH = 0x3d2
                    0x03d2                  _C2RXF2EIDH = 0x3d2
                    0x03d4                  C2RXF2EIDL = 0x3d4
                    0x03d4                  _C2RXF2EIDL = 0x3d4
                    0x03d8                  C2RXF3SID = 0x3d8
                    0x03d8                  _C2RXF3SID = 0x3d8
                    0x03da                  C2RXF3EIDH = 0x3da
                    0x03da                  _C2RXF3EIDH = 0x3da
                    0x03dc                  C2RXF3EIDL = 0x3dc
                    0x03dc                  _C2RXF3EIDL = 0x3dc
                    0x03e0                  C2RXF4SID = 0x3e0
                    0x03e0                  _C2RXF4SID = 0x3e0
                    0x03e2                  C2RXF4EIDH = 0x3e2
                    0x03e2                  _C2RXF4EIDH = 0x3e2
                    0x03e4                  C2RXF4EIDL = 0x3e4
                    0x03e4                  _C2RXF4EIDL = 0x3e4
                    0x03e8                  C2RXF5SID = 0x3e8
                    0x03e8                  _C2RXF5SID = 0x3e8
                    0x03ea                  C2RXF5EIDH = 0x3ea
                    0x03ea                  _C2RXF5EIDH = 0x3ea
                    0x03ec                  C2RXF5EIDL = 0x3ec
                    0x03ec                  _C2RXF5EIDL = 0x3ec
                    0x03f0                  C2RXM0SID = 0x3f0
                    0x03f0                  _C2RXM0SID = 0x3f0
                    0x03f2                  C2RXM0EIDH = 0x3f2
                    0x03f2                  _C2RXM0EIDH = 0x3f2
                    0x03f4                  C2RXM0EIDL = 0x3f4
                    0x03f4                  _C2RXM0EIDL = 0x3f4
                    0x03f8                  C2RXM1SID = 0x3f8
                    0x03f8                  _C2RXM1SID = 0x3f8
                    0x03fa                  C2RXM1EIDH = 0x3fa
                    0x03fa                  _C2RXM1EIDH = 0x3fa
                    0x03fc                  C2RXM1EIDL = 0x3fc
                    0x03fc                  _C2RXM1EIDL = 0x3fc
                    0x0400                  C2TX2SID = 0x400
                    0x0400                  _C2TX2SID = 0x400
                    0x0402                  C2TX2EID = 0x402
                    0x0402                  _C2TX2EID = 0x402
                    0x0404                  C2TX2DLC = 0x404
                    0x0404                  _C2TX2DLC = 0x404
                    0x0406                  C2TX2B1 = 0x406
                    0x0406                  _C2TX2B1 = 0x406
                    0x0408                  C2TX2B2 = 0x408
                    0x0408                  _C2TX2B2 = 0x408
                    0x040a                  C2TX2B3 = 0x40a
                    0x040a                  _C2TX2B3 = 0x40a
                    0x040c                  C2TX2B4 = 0x40c
                    0x040c                  _C2TX2B4 = 0x40c
                    0x040e                  C2TX2CON = 0x40e
                    0x040e                  _C2TX2CON = 0x40e
                    0x0410                  C2TX1SID = 0x410
                    0x0410                  _C2TX1SID = 0x410
                    0x0412                  C2TX1EID = 0x412
                    0x0412                  _C2TX1EID = 0x412
                    0x0414                  C2TX1DLC = 0x414
                    0x0414                  _C2TX1DLC = 0x414
                    0x0416                  C2TX1B1 = 0x416
                    0x0416                  _C2TX1B1 = 0x416
                    0x0418                  C2TX1B2 = 0x418
                    0x0418                  _C2TX1B2 = 0x418
                    0x041a                  C2TX1B3 = 0x41a
                    0x041a                  _C2TX1B3 = 0x41a
                    0x041c                  C2TX1B4 = 0x41c
                    0x041c                  _C2TX1B4 = 0x41c
                    0x041e                  C2TX1CON = 0x41e
                    0x041e                  _C2TX1CON = 0x41e
                    0x0420                  C2TX0SID = 0x420
                    0x0420                  _C2TX0SID = 0x420
                    0x0422                  C2TX0EID = 0x422
                    0x0422                  _C2TX0EID = 0x422
                    0x0424                  C2TX0DLC = 0x424
                    0x0424                  _C2TX0DLC = 0x424
                    0x0426                  C2TX0B1 = 0x426
                    0x0426                  _C2TX0B1 = 0x426
                    0x0428                  C2TX0B2 = 0x428
                    0x0428                  _C2TX0B2 = 0x428
                    0x042a                  C2TX0B3 = 0x42a
                    0x042a                  _C2TX0B3 = 0x42a
                    0x042c                  C2TX0B4 = 0x42c
                    0x042c                  _C2TX0B4 = 0x42c
                    0x042e                  C2TX0CON = 0x42e
                    0x042e                  _C2TX0CON = 0x42e
                    0x0430                  C2RX1SID = 0x430
                    0x0430                  _C2RX1SID = 0x430
                    0x0432                  C2RX1EID = 0x432
                    0x0432                  _C2RX1EID = 0x432
                    0x0434                  C2RX1DLC = 0x434
                    0x0434                  _C2RX1DLC = 0x434
                    0x0436                  C2RX1B1 = 0x436
                    0x0436                  _C2RX1B1 = 0x436
                    0x0438                  C2RX1B2 = 0x438
                    0x0438                  _C2RX1B2 = 0x438
                    0x043a                  C2RX1B3 = 0x43a
                    0x043a                  _C2RX1B3 = 0x43a
                    0x043c                  C2RX1B4 = 0x43c
                    0x043c                  _C2RX1B4 = 0x43c
                    0x043e                  C2RX1CON = 0x43e
                    0x043e                  _C2RX1CON = 0x43e
                    0x0440                  C2RX0SID = 0x440
                    0x0440                  _C2RX0SID = 0x440
                    0x0442                  C2RX0EID = 0x442
                    0x0442                  _C2RX0EID = 0x442
                    0x0444                  C2RX0DLC = 0x444
                    0x0444                  _C2RX0DLC = 0x444
                    0x0446                  C2RX0B1 = 0x446
                    0x0446                  _C2RX0B1 = 0x446
                    0x0448                  C2RX0B2 = 0x448
                    0x0448                  _C2RX0B2 = 0x448
                    0x044a                  C2RX0B3 = 0x44a
                    0x044a                  _C2RX0B3 = 0x44a
                    0x044c                  C2RX0B4 = 0x44c
                    0x044c                  _C2RX0B4 = 0x44c
                    0x044e                  C2RX0CON = 0x44e
                    0x044e                  _C2RX0CON = 0x44e
                    0x0450                  C2CTRL = 0x450
                    0x0450                  _C2CTRL = 0x450
                    0x0452                  C2CFG1 = 0x452
                    0x0452                  _C2CFG1 = 0x452
                    0x0454                  C2CFG2 = 0x454
                    0x0454                  _C2CFG2 = 0x454
                    0x0456                  C2INTF = 0x456
                    0x0456                  _C2INTF = 0x456
                    0x0458                  C2INTE = 0x458
                    0x0458                  _C2INTE = 0x458
                    0x045a                  C2EC = 0x45a
                    0x045a                  _C2EC = 0x45a
                    0x045a                  C2RERRCNT = 0x45a
                    0x045a                  _C2RERRCNT = 0x45a
                    0x045b                  C2TERRCNT = 0x45b
                    0x045b                  _C2TERRCNT = 0x45b
                    0x0740                  RCON = 0x740
                    0x0740                  _RCON = 0x740
                    0x0742                  OSCCON = 0x742
                    0x0742                  _OSCCON = 0x742
                    0x0744                  OSCTUN = 0x744
                    0x0744                  _OSCTUN = 0x744
                    0x0750                  BSRAM = 0x750
                    0x0750                  _BSRAM = 0x750
                    0x0752                  SSRAM = 0x752
                    0x0752                  _SSRAM = 0x752
                    0x0760                  NVMCON = 0x760
                    0x0760                  _NVMCON = 0x760
                    0x0762                  NVMADR = 0x762
                    0x0762                  _NVMADR = 0x762
                    0x0764                  NVMADRU = 0x764
                    0x0764                  _NVMADRU = 0x764
                    0x0766                  NVMKEY = 0x766
                    0x0766                  _NVMKEY = 0x766
                    0x0770                  PMD1 = 0x770
                    0x0770                  _PMD1 = 0x770
                    0x0772                  PMD2 = 0x772
                    0x0772                  _PMD2 = 0x772
                    0x0774                  PMD3 = 0x774
                    0x0774                  _PMD3 = 0x774
                    0x0022                  ACCA = 0x22
                    0x0022                  _ACCA = 0x22
                    0x0028                  ACCB = 0x28
                    0x0028                  _ACCB = 0x28
                    0x0042                  SRbits = 0x42
                    0x0042                  _SRbits = 0x42
                    0x0044                  CORCONbits = 0x44
                    0x0044                  _CORCONbits = 0x44
                    0x0046                  MODCONbits = 0x46
                    0x0046                  _MODCONbits = 0x46
                    0x0050                  XBREVbits = 0x50
                    0x0050                  _XBREVbits = 0x50
                    0x0052                  DISICNTbits = 0x52
                    0x0052                  _DISICNTbits = 0x52
                    0x0080                  INTCON1bits = 0x80
                    0x0080                  _INTCON1bits = 0x80
                    0x0082                  INTCON2bits = 0x82
                    0x0082                  _INTCON2bits = 0x82
                    0x0084                  IFS0bits = 0x84
                    0x0084                  _IFS0bits = 0x84
                    0x0086                  IFS1bits = 0x86
                    0x0086                  _IFS1bits = 0x86
                    0x0088                  IFS2bits = 0x88
                    0x0088                  _IFS2bits = 0x88
                    0x008c                  IEC0bits = 0x8c
                    0x008c                  _IEC0bits = 0x8c
                    0x008e                  IEC1bits = 0x8e
                    0x008e                  _IEC1bits = 0x8e
                    0x0090                  IEC2bits = 0x90
                    0x0090                  _IEC2bits = 0x90
                    0x0094                  IPC0bits = 0x94
                    0x0094                  _IPC0bits = 0x94
                    0x0096                  IPC1bits = 0x96
                    0x0096                  _IPC1bits = 0x96
                    0x0098                  IPC2bits = 0x98
                    0x0098                  _IPC2bits = 0x98
                    0x009a                  IPC3bits = 0x9a
                    0x009a                  _IPC3bits = 0x9a
                    0x009c                  IPC4bits = 0x9c
                    0x009c                  _IPC4bits = 0x9c
                    0x009e                  IPC5bits = 0x9e
                    0x009e                  _IPC5bits = 0x9e
                    0x00a0                  IPC6bits = 0xa0
                    0x00a0                  _IPC6bits = 0xa0
                    0x00a2                  IPC7bits = 0xa2
                    0x00a2                  _IPC7bits = 0xa2
                    0x00a4                  IPC8bits = 0xa4
                    0x00a4                  _IPC8bits = 0xa4
                    0x00a6                  IPC9bits = 0xa6
                    0x00a6                  _IPC9bits = 0xa6
                    0x00a8                  IPC10bits = 0xa8
                    0x00a8                  _IPC10bits = 0xa8
                    0x00b0                  INTTREGbits = 0xb0
                    0x00b0                  _INTTREGbits = 0xb0
                    0x00c0                  CNEN1bits = 0xc0
                    0x00c0                  _CNEN1bits = 0xc0
                    0x00c2                  CNEN2bits = 0xc2
                    0x00c2                  _CNEN2bits = 0xc2
                    0x00c4                  CNPU1bits = 0xc4
                    0x00c4                  _CNPU1bits = 0xc4
                    0x00c6                  CNPU2bits = 0xc6
                    0x00c6                  _CNPU2bits = 0xc6
                    0x0104                  T1CONbits = 0x104
                    0x0104                  _T1CONbits = 0x104
                    0x0110                  T2CONbits = 0x110
                    0x0110                  _T2CONbits = 0x110
                    0x0112                  T3CONbits = 0x112
                    0x0112                  _T3CONbits = 0x112
                    0x011e                  T4CONbits = 0x11e
                    0x011e                  _T4CONbits = 0x11e
                    0x0120                  T5CONbits = 0x120
                    0x0120                  _T5CONbits = 0x120
                    0x0142                  IC1CONbits = 0x142
                    0x0142                  _IC1CONbits = 0x142
                    0x0146                  IC2CONbits = 0x146
                    0x0146                  _IC2CONbits = 0x146
                    0x014a                  IC3CONbits = 0x14a
                    0x014a                  _IC3CONbits = 0x14a
                    0x014e                  IC4CONbits = 0x14e
                    0x014e                  _IC4CONbits = 0x14e
                    0x0152                  IC5CONbits = 0x152
                    0x0152                  _IC5CONbits = 0x152
                    0x0156                  IC6CONbits = 0x156
                    0x0156                  _IC6CONbits = 0x156
                    0x015a                  IC7CONbits = 0x15a
                    0x015a                  _IC7CONbits = 0x15a
                    0x015e                  IC8CONbits = 0x15e
                    0x015e                  _IC8CONbits = 0x15e
                    0x0184                  OC1CONbits = 0x184
                    0x0184                  _OC1CONbits = 0x184
                    0x018a                  OC2CONbits = 0x18a
                    0x018a                  _OC2CONbits = 0x18a
                    0x0190                  OC3CONbits = 0x190
                    0x0190                  _OC3CONbits = 0x190
                    0x0196                  OC4CONbits = 0x196
                    0x0196                  _OC4CONbits = 0x196
                    0x019c                  OC5CONbits = 0x19c
                    0x019c                  _OC5CONbits = 0x19c
                    0x01a2                  OC6CONbits = 0x1a2
                    0x01a2                  _OC6CONbits = 0x1a2
                    0x01a8                  OC7CONbits = 0x1a8
                    0x01a8                  _OC7CONbits = 0x1a8
                    0x01ae                  OC8CONbits = 0x1ae
                    0x01ae                  _OC8CONbits = 0x1ae
                    0x0200                  I2CRCVbits = 0x200
                    0x0200                  _I2CRCVbits = 0x200
                    0x0202                  I2CTRNbits = 0x202
                    0x0202                  _I2CTRNbits = 0x202
                    0x0204                  I2CBRGbits = 0x204
                    0x0204                  _I2CBRGbits = 0x204
                    0x0206                  I2CCONbits = 0x206
                    0x0206                  _I2CCONbits = 0x206
                    0x0208                  I2CSTATbits = 0x208
                    0x0208                  _I2CSTATbits = 0x208
                    0x020a                  I2CADDbits = 0x20a
                    0x020a                  _I2CADDbits = 0x20a
                    0x020c                  U1MODEbits = 0x20c
                    0x020c                  _U1MODEbits = 0x20c
                    0x020e                  U1STAbits = 0x20e
                    0x020e                  _U1STAbits = 0x20e
                    0x0210                  U1TXREGbits = 0x210
                    0x0210                  _U1TXREGbits = 0x210
                    0x0212                  U1RXREGbits = 0x212
                    0x0212                  _U1RXREGbits = 0x212
                    0x0216                  U2MODEbits = 0x216
                    0x0216                  _U2MODEbits = 0x216
                    0x0218                  U2STAbits = 0x218
                    0x0218                  _U2STAbits = 0x218
                    0x021a                  U2TXREGbits = 0x21a
                    0x021a                  _U2TXREGbits = 0x21a
                    0x021c                  U2RXREGbits = 0x21c
                    0x021c                  _U2RXREGbits = 0x21c
                    0x0220                  SPI1STATbits = 0x220
                    0x0220                  _SPI1STATbits = 0x220
                    0x0222                  SPI1CONbits = 0x222
                    0x0222                  _SPI1CONbits = 0x222
                    0x0226                  SPI2STATbits = 0x226
                    0x0226                  _SPI2STATbits = 0x226
                    0x0228                  SPI2CONbits = 0x228
                    0x0228                  _SPI2CONbits = 0x228
                    0x0240                  DCICON1bits = 0x240
                    0x0240                  _DCICON1bits = 0x240
                    0x0242                  DCICON2bits = 0x242
                    0x0242                  _DCICON2bits = 0x242
                    0x0244                  DCICON3bits = 0x244
                    0x0244                  _DCICON3bits = 0x244
                    0x0246                  DCISTATbits = 0x246
                    0x0246                  _DCISTATbits = 0x246
                    0x0248                  TSCONbits = 0x248
                    0x0248                  _TSCONbits = 0x248
                    0x024c                  RSCONbits = 0x24c
                    0x024c                  _RSCONbits = 0x24c
                    0x02a0                  ADCON1bits = 0x2a0
                    0x02a0                  _ADCON1bits = 0x2a0
                    0x02a2                  ADCON2bits = 0x2a2
                    0x02a2                  _ADCON2bits = 0x2a2
                    0x02a4                  ADCON3bits = 0x2a4
                    0x02a4                  _ADCON3bits = 0x2a4
                    0x02a6                  ADCHSbits = 0x2a6
                    0x02a6                  _ADCHSbits = 0x2a6
                    0x02a8                  ADPCFGbits = 0x2a8
                    0x02a8                  _ADPCFGbits = 0x2a8
                    0x02aa                  ADCSSLbits = 0x2aa
                    0x02aa                  _ADCSSLbits = 0x2aa
                    0x02c0                  TRISAbits = 0x2c0
                    0x02c0                  _TRISAbits = 0x2c0
                    0x02c2                  PORTAbits = 0x2c2
                    0x02c2                  _PORTAbits = 0x2c2
                    0x02c4                  LATAbits = 0x2c4
                    0x02c4                  _LATAbits = 0x2c4
                    0x02c6                  TRISBbits = 0x2c6
                    0x02c6                  _TRISBbits = 0x2c6
                    0x02c8                  PORTBbits = 0x2c8
                    0x02c8                  _PORTBbits = 0x2c8
                    0x02ca                  LATBbits = 0x2ca
                    0x02ca                  _LATBbits = 0x2ca
                    0x02cc                  TRISCbits = 0x2cc
                    0x02cc                  _TRISCbits = 0x2cc
                    0x02ce                  PORTCbits = 0x2ce
                    0x02ce                  _PORTCbits = 0x2ce
                    0x02d0                  LATCbits = 0x2d0
                    0x02d0                  _LATCbits = 0x2d0
                    0x02d2                  TRISDbits = 0x2d2
                    0x02d2                  _TRISDbits = 0x2d2
                    0x02d4                  PORTDbits = 0x2d4
                    0x02d4                  _PORTDbits = 0x2d4
                    0x02d6                  LATDbits = 0x2d6
                    0x02d6                  _LATDbits = 0x2d6
                    0x02de                  TRISFbits = 0x2de
                    0x02de                  _TRISFbits = 0x2de
                    0x02e0                  PORTFbits = 0x2e0
                    0x02e0                  _PORTFbits = 0x2e0
                    0x02e2                  LATFbits = 0x2e2
                    0x02e2                  _LATFbits = 0x2e2
                    0x02e4                  TRISGbits = 0x2e4
                    0x02e4                  _TRISGbits = 0x2e4
                    0x02e6                  PORTGbits = 0x2e6
                    0x02e6                  _PORTGbits = 0x2e6
                    0x02e8                  LATGbits = 0x2e8
                    0x02e8                  _LATGbits = 0x2e8
                    0x0300                  C1RXF0SIDbits = 0x300
                    0x0300                  _C1RXF0SIDbits = 0x300
                    0x0302                  C1RXF0EIDHbits = 0x302
                    0x0302                  _C1RXF0EIDHbits = 0x302
                    0x0304                  C1RXF0EIDLbits = 0x304
                    0x0304                  _C1RXF0EIDLbits = 0x304
                    0x0308                  C1RXF1SIDbits = 0x308
                    0x0308                  _C1RXF1SIDbits = 0x308
                    0x030a                  C1RXF1EIDHbits = 0x30a
                    0x030a                  _C1RXF1EIDHbits = 0x30a
                    0x030c                  C1RXF1EIDLbits = 0x30c
                    0x030c                  _C1RXF1EIDLbits = 0x30c
                    0x0310                  C1RXF2SIDbits = 0x310
                    0x0310                  _C1RXF2SIDbits = 0x310
                    0x0312                  C1RXF2EIDHbits = 0x312
                    0x0312                  _C1RXF2EIDHbits = 0x312
                    0x0314                  C1RXF2EIDLbits = 0x314
                    0x0314                  _C1RXF2EIDLbits = 0x314
                    0x0318                  C1RXF3SIDbits = 0x318
                    0x0318                  _C1RXF3SIDbits = 0x318
                    0x031a                  C1RXF3EIDHbits = 0x31a
                    0x031a                  _C1RXF3EIDHbits = 0x31a
                    0x031c                  C1RXF3EIDLbits = 0x31c
                    0x031c                  _C1RXF3EIDLbits = 0x31c
                    0x0320                  C1RXF4SIDbits = 0x320
                    0x0320                  _C1RXF4SIDbits = 0x320
                    0x0322                  C1RXF4EIDHbits = 0x322
                    0x0322                  _C1RXF4EIDHbits = 0x322
                    0x0324                  C1RXF4EIDLbits = 0x324
                    0x0324                  _C1RXF4EIDLbits = 0x324
                    0x0328                  C1RXF5SIDbits = 0x328
                    0x0328                  _C1RXF5SIDbits = 0x328
                    0x032a                  C1RXF5EIDHbits = 0x32a
                    0x032a                  _C1RXF5EIDHbits = 0x32a
                    0x032c                  C1RXF5EIDLbits = 0x32c
                    0x032c                  _C1RXF5EIDLbits = 0x32c
                    0x0330                  C1RXM0SIDbits = 0x330
                    0x0330                  _C1RXM0SIDbits = 0x330
                    0x0332                  C1RXM0EIDHbits = 0x332
                    0x0332                  _C1RXM0EIDHbits = 0x332
                    0x0334                  C1RXM0EIDLbits = 0x334
                    0x0334                  _C1RXM0EIDLbits = 0x334
                    0x0338                  C1RXM1SIDbits = 0x338
                    0x0338                  _C1RXM1SIDbits = 0x338
                    0x033a                  C1RXM1EIDHbits = 0x33a
                    0x033a                  _C1RXM1EIDHbits = 0x33a
                    0x033c                  C1RXM1EIDLbits = 0x33c
                    0x033c                  _C1RXM1EIDLbits = 0x33c
                    0x0340                  C1TX2SIDbits = 0x340
                    0x0340                  _C1TX2SIDbits = 0x340
                    0x0342                  C1TX2EIDbits = 0x342
                    0x0342                  _C1TX2EIDbits = 0x342
                    0x0344                  C1TX2DLCbits = 0x344
                    0x0344                  _C1TX2DLCbits = 0x344
                    0x0346                  C1TX2B1bits = 0x346
                    0x0346                  _C1TX2B1bits = 0x346
                    0x0348                  C1TX2B2bits = 0x348
                    0x0348                  _C1TX2B2bits = 0x348
                    0x034a                  C1TX2B3bits = 0x34a
                    0x034a                  _C1TX2B3bits = 0x34a
                    0x034c                  C1TX2B4bits = 0x34c
                    0x034c                  _C1TX2B4bits = 0x34c
                    0x034e                  C1TX2CONbits = 0x34e
                    0x034e                  _C1TX2CONbits = 0x34e
                    0x0350                  C1TX1SIDbits = 0x350
                    0x0350                  _C1TX1SIDbits = 0x350
                    0x0352                  C1TX1EIDbits = 0x352
                    0x0352                  _C1TX1EIDbits = 0x352
                    0x0354                  C1TX1DLCbits = 0x354
                    0x0354                  _C1TX1DLCbits = 0x354
                    0x0356                  C1TX1B1bits = 0x356
                    0x0356                  _C1TX1B1bits = 0x356
                    0x0358                  C1TX1B2bits = 0x358
                    0x0358                  _C1TX1B2bits = 0x358
                    0x035a                  C1TX1B3bits = 0x35a
                    0x035a                  _C1TX1B3bits = 0x35a
                    0x035c                  C1TX1B4bits = 0x35c
                    0x035c                  _C1TX1B4bits = 0x35c
                    0x035e                  C1TX1CONbits = 0x35e
                    0x035e                  _C1TX1CONbits = 0x35e
                    0x0360                  C1TX0SIDbits = 0x360
                    0x0360                  _C1TX0SIDbits = 0x360
                    0x0362                  C1TX0EIDbits = 0x362
                    0x0362                  _C1TX0EIDbits = 0x362
                    0x0364                  C1TX0DLCbits = 0x364
                    0x0364                  _C1TX0DLCbits = 0x364
                    0x0366                  C1TX0B1bits = 0x366
                    0x0366                  _C1TX0B1bits = 0x366
                    0x0368                  C1TX0B2bits = 0x368
                    0x0368                  _C1TX0B2bits = 0x368
                    0x036a                  C1TX0B3bits = 0x36a
                    0x036a                  _C1TX0B3bits = 0x36a
                    0x036c                  C1TX0B4bits = 0x36c
                    0x036c                  _C1TX0B4bits = 0x36c
                    0x036e                  C1TX0CONbits = 0x36e
                    0x036e                  _C1TX0CONbits = 0x36e
                    0x0370                  C1RX1SIDbits = 0x370
                    0x0370                  _C1RX1SIDbits = 0x370
                    0x0372                  C1RX1EIDbits = 0x372
                    0x0372                  _C1RX1EIDbits = 0x372
                    0x0374                  C1RX1DLCbits = 0x374
                    0x0374                  _C1RX1DLCbits = 0x374
                    0x0376                  C1RX1B1bits = 0x376
                    0x0376                  _C1RX1B1bits = 0x376
                    0x0378                  C1RX1B2bits = 0x378
                    0x0378                  _C1RX1B2bits = 0x378
                    0x037a                  C1RX1B3bits = 0x37a
                    0x037a                  _C1RX1B3bits = 0x37a
                    0x037c                  C1RX1B4bits = 0x37c
                    0x037c                  _C1RX1B4bits = 0x37c
                    0x037e                  C1RX1CONbits = 0x37e
                    0x037e                  _C1RX1CONbits = 0x37e
                    0x0380                  C1RX0SIDbits = 0x380
                    0x0380                  _C1RX0SIDbits = 0x380
                    0x0382                  C1RX0EIDbits = 0x382
                    0x0382                  _C1RX0EIDbits = 0x382
                    0x0384                  C1RX0DLCbits = 0x384
                    0x0384                  _C1RX0DLCbits = 0x384
                    0x0386                  C1RX0B1bits = 0x386
                    0x0386                  _C1RX0B1bits = 0x386
                    0x0388                  C1RX0B2bits = 0x388
                    0x0388                  _C1RX0B2bits = 0x388
                    0x038a                  C1RX0B3bits = 0x38a
                    0x038a                  _C1RX0B3bits = 0x38a
                    0x038c                  C1RX0B4bits = 0x38c
                    0x038c                  _C1RX0B4bits = 0x38c
                    0x038e                  C1RX0CONbits = 0x38e
                    0x038e                  _C1RX0CONbits = 0x38e
                    0x0390                  C1CTRLbits = 0x390
                    0x0390                  _C1CTRLbits = 0x390
                    0x0392                  C1CFG1bits = 0x392
                    0x0392                  _C1CFG1bits = 0x392
                    0x0394                  C1CFG2bits = 0x394
                    0x0394                  _C1CFG2bits = 0x394
                    0x0396                  C1INTFbits = 0x396
                    0x0396                  _C1INTFbits = 0x396
                    0x0398                  C1INTEbits = 0x398
                    0x0398                  _C1INTEbits = 0x398
                    0x039a                  C1ECbits = 0x39a
                    0x039a                  _C1ECbits = 0x39a
                    0x03c0                  C2RXF0SIDbits = 0x3c0
                    0x03c0                  _C2RXF0SIDbits = 0x3c0
                    0x03c2                  C2RXF0EIDHbits = 0x3c2
                    0x03c2                  _C2RXF0EIDHbits = 0x3c2
                    0x03c4                  C2RXF0EIDLbits = 0x3c4
                    0x03c4                  _C2RXF0EIDLbits = 0x3c4
                    0x03c8                  C2RXF1SIDbits = 0x3c8
                    0x03c8                  _C2RXF1SIDbits = 0x3c8
                    0x03ca                  C2RXF1EIDHbits = 0x3ca
                    0x03ca                  _C2RXF1EIDHbits = 0x3ca
                    0x03cc                  C2RXF1EIDLbits = 0x3cc
                    0x03cc                  _C2RXF1EIDLbits = 0x3cc
                    0x03d0                  C2RXF2SIDbits = 0x3d0
                    0x03d0                  _C2RXF2SIDbits = 0x3d0
                    0x03d2                  C2RXF2EIDHbits = 0x3d2
                    0x03d2                  _C2RXF2EIDHbits = 0x3d2
                    0x03d4                  C2RXF2EIDLbits = 0x3d4
                    0x03d4                  _C2RXF2EIDLbits = 0x3d4
                    0x03d8                  C2RXF3SIDbits = 0x3d8
                    0x03d8                  _C2RXF3SIDbits = 0x3d8
                    0x03da                  C2RXF3EIDHbits = 0x3da
                    0x03da                  _C2RXF3EIDHbits = 0x3da
                    0x03dc                  C2RXF3EIDLbits = 0x3dc
                    0x03dc                  _C2RXF3EIDLbits = 0x3dc
                    0x03e0                  C2RXF4SIDbits = 0x3e0
                    0x03e0                  _C2RXF4SIDbits = 0x3e0
                    0x03e2                  C2RXF4EIDHbits = 0x3e2
                    0x03e2                  _C2RXF4EIDHbits = 0x3e2
                    0x03e4                  C2RXF4EIDLbits = 0x3e4
                    0x03e4                  _C2RXF4EIDLbits = 0x3e4
                    0x03e8                  C2RXF5SIDbits = 0x3e8
                    0x03e8                  _C2RXF5SIDbits = 0x3e8
                    0x03ea                  C2RXF5EIDHbits = 0x3ea
                    0x03ea                  _C2RXF5EIDHbits = 0x3ea
                    0x03ec                  C2RXF5EIDLbits = 0x3ec
                    0x03ec                  _C2RXF5EIDLbits = 0x3ec
                    0x03f0                  C2RXM0SIDbits = 0x3f0
                    0x03f0                  _C2RXM0SIDbits = 0x3f0
                    0x03f2                  C2RXM0EIDHbits = 0x3f2
                    0x03f2                  _C2RXM0EIDHbits = 0x3f2
                    0x03f4                  C2RXM0EIDLbits = 0x3f4
                    0x03f4                  _C2RXM0EIDLbits = 0x3f4
                    0x03f8                  C2RXM1SIDbits = 0x3f8
                    0x03f8                  _C2RXM1SIDbits = 0x3f8
                    0x03fa                  C2RXM1EIDHbits = 0x3fa
                    0x03fa                  _C2RXM1EIDHbits = 0x3fa
                    0x03fc                  C2RXM1EIDLbits = 0x3fc
                    0x03fc                  _C2RXM1EIDLbits = 0x3fc
                    0x0400                  C2TX2SIDbits = 0x400
                    0x0400                  _C2TX2SIDbits = 0x400
                    0x0402                  C2TX2EIDbits = 0x402
                    0x0402                  _C2TX2EIDbits = 0x402
                    0x0404                  C2TX2DLCbits = 0x404
                    0x0404                  _C2TX2DLCbits = 0x404
                    0x0406                  C2TX2B1bits = 0x406
                    0x0406                  _C2TX2B1bits = 0x406
                    0x0408                  C2TX2B2bits = 0x408
                    0x0408                  _C2TX2B2bits = 0x408
                    0x040a                  C2TX2B3bits = 0x40a
                    0x040a                  _C2TX2B3bits = 0x40a
                    0x040c                  C2TX2B4bits = 0x40c
                    0x040c                  _C2TX2B4bits = 0x40c
                    0x040e                  C2TX2CONbits = 0x40e
                    0x040e                  _C2TX2CONbits = 0x40e
                    0x0410                  C2TX1SIDbits = 0x410
                    0x0410                  _C2TX1SIDbits = 0x410
                    0x0412                  C2TX1EIDbits = 0x412
                    0x0412                  _C2TX1EIDbits = 0x412
                    0x0414                  C2TX1DLCbits = 0x414
                    0x0414                  _C2TX1DLCbits = 0x414
                    0x0416                  C2TX1B1bits = 0x416
                    0x0416                  _C2TX1B1bits = 0x416
                    0x0418                  C2TX1B2bits = 0x418
                    0x0418                  _C2TX1B2bits = 0x418
                    0x041a                  C2TX1B3bits = 0x41a
                    0x041a                  _C2TX1B3bits = 0x41a
                    0x041c                  C2TX1B4bits = 0x41c
                    0x041c                  _C2TX1B4bits = 0x41c
                    0x041e                  C2TX1CONbits = 0x41e
                    0x041e                  _C2TX1CONbits = 0x41e
                    0x0420                  C2TX0SIDbits = 0x420
                    0x0420                  _C2TX0SIDbits = 0x420
                    0x0422                  C2TX0EIDbits = 0x422
                    0x0422                  _C2TX0EIDbits = 0x422
                    0x0424                  C2TX0DLCbits = 0x424
                    0x0424                  _C2TX0DLCbits = 0x424
                    0x0426                  C2TX0B1bits = 0x426
                    0x0426                  _C2TX0B1bits = 0x426
                    0x0428                  C2TX0B2bits = 0x428
                    0x0428                  _C2TX0B2bits = 0x428
                    0x042a                  C2TX0B3bits = 0x42a
                    0x042a                  _C2TX0B3bits = 0x42a
                    0x042c                  C2TX0B4bits = 0x42c
                    0x042c                  _C2TX0B4bits = 0x42c
                    0x042e                  C2TX0CONbits = 0x42e
                    0x042e                  _C2TX0CONbits = 0x42e
                    0x0430                  C2RX1SIDbits = 0x430
                    0x0430                  _C2RX1SIDbits = 0x430
                    0x0432                  C2RX1EIDbits = 0x432
                    0x0432                  _C2RX1EIDbits = 0x432
                    0x0434                  C2RX1DLCbits = 0x434
                    0x0434                  _C2RX1DLCbits = 0x434
                    0x0436                  C2RX1B1bits = 0x436
                    0x0436                  _C2RX1B1bits = 0x436
                    0x0438                  C2RX1B2bits = 0x438
                    0x0438                  _C2RX1B2bits = 0x438
                    0x043a                  C2RX1B3bits = 0x43a
                    0x043a                  _C2RX1B3bits = 0x43a
                    0x043c                  C2RX1B4bits = 0x43c
                    0x043c                  _C2RX1B4bits = 0x43c
                    0x043e                  C2RX1CONbits = 0x43e
                    0x043e                  _C2RX1CONbits = 0x43e
                    0x0440                  C2RX0SIDbits = 0x440
                    0x0440                  _C2RX0SIDbits = 0x440
                    0x0442                  C2RX0EIDbits = 0x442
                    0x0442                  _C2RX0EIDbits = 0x442
                    0x0444                  C2RX0DLCbits = 0x444
                    0x0444                  _C2RX0DLCbits = 0x444
                    0x0446                  C2RX0B1bits = 0x446
                    0x0446                  _C2RX0B1bits = 0x446
                    0x0448                  C2RX0B2bits = 0x448
                    0x0448                  _C2RX0B2bits = 0x448
                    0x044a                  C2RX0B3bits = 0x44a
                    0x044a                  _C2RX0B3bits = 0x44a
                    0x044c                  C2RX0B4bits = 0x44c
                    0x044c                  _C2RX0B4bits = 0x44c
                    0x044e                  C2RX0CONbits = 0x44e
                    0x044e                  _C2RX0CONbits = 0x44e
                    0x0450                  C2CTRLbits = 0x450
                    0x0450                  _C2CTRLbits = 0x450
                    0x0452                  C2CFG1bits = 0x452
                    0x0452                  _C2CFG1bits = 0x452
                    0x0454                  C2CFG2bits = 0x454
                    0x0454                  _C2CFG2bits = 0x454
                    0x0456                  C2INTFbits = 0x456
                    0x0456                  _C2INTFbits = 0x456
                    0x0458                  C2INTEbits = 0x458
                    0x0458                  _C2INTEbits = 0x458
                    0x045a                  C2ECbits = 0x45a
                    0x045a                  _C2ECbits = 0x45a
                    0x0740                  RCONbits = 0x740
                    0x0740                  _RCONbits = 0x740
                    0x0742                  OSCCONbits = 0x742
                    0x0742                  _OSCCONbits = 0x742
                    0x0750                  BSRAMbits = 0x750
                    0x0750                  _BSRAMbits = 0x750
                    0x0752                  SSRAMbits = 0x752
                    0x0752                  _SSRAMbits = 0x752
                    0x0760                  NVMCONbits = 0x760
                    0x0760                  _NVMCONbits = 0x760
                    0x0770                  PMD1bits = 0x770
                    0x0770                  _PMD1bits = 0x770
                    0x0772                  PMD2bits = 0x772
                    0x0772                  _PMD2bits = 0x772
                    0x0774                  PMD3bits = 0x774
                    0x0774                  _PMD3bits = 0x774
                    0x0140                  IC1 = 0x140
                    0x0140                  _IC1 = 0x140
                    0x0144                  IC2 = 0x144
                    0x0144                  _IC2 = 0x144
                    0x0148                  IC3 = 0x148
                    0x0148                  _IC3 = 0x148
                    0x014c                  IC4 = 0x14c
                    0x014c                  _IC4 = 0x14c
                    0x0150                  IC5 = 0x150
                    0x0150                  _IC5 = 0x150
                    0x0154                  IC6 = 0x154
                    0x0154                  _IC6 = 0x154
                    0x0158                  IC7 = 0x158
                    0x0158                  _IC7 = 0x158
                    0x015c                  IC8 = 0x15c
                    0x015c                  _IC8 = 0x15c
                    0x0180                  OC1 = 0x180
                    0x0180                  _OC1 = 0x180
                    0x0186                  OC2 = 0x186
                    0x0186                  _OC2 = 0x186
                    0x018c                  OC3 = 0x18c
                    0x018c                  _OC3 = 0x18c
                    0x0192                  OC4 = 0x192
                    0x0192                  _OC4 = 0x192
                    0x0198                  OC5 = 0x198
                    0x0198                  _OC5 = 0x198
                    0x019e                  OC6 = 0x19e
                    0x019e                  _OC6 = 0x19e
                    0x01a4                  OC7 = 0x1a4
                    0x01a4                  _OC7 = 0x1a4
                    0x01aa                  OC8 = 0x1aa
                    0x01aa                  _OC8 = 0x1aa
                    0x020c                  UART1 = 0x20c
                    0x020c                  _UART1 = 0x20c
                    0x0216                  UART2 = 0x216
                    0x0216                  _UART2 = 0x216
                    0x0220                  SPI1 = 0x220
                    0x0220                  _SPI1 = 0x220
                    0x0226                  SPI2 = 0x226
                    0x0226                  _SPI2 = 0x226
                    0x0300                  CAN1 = 0x300
                    0x0300                  _CAN1 = 0x300
                    0x03c0                  CAN2 = 0x3c0
                    0x03c0                  _CAN2 = 0x3c0
                    0x0001                  __MPLAB_BUILD = 0x1
START GROUP
LOAD c:/program files (x86)/microchip/mplab c30/bin/../lib\libpic30-coff.a
LOAD c:/program files (x86)/microchip/mplab c30/bin/../lib\libm-coff.a
LOAD c:/program files (x86)/microchip/mplab c30/bin/../lib\libc-coff.a
END GROUP
OUTPUT(PULSEMIG.cof coff-pic30)
LOAD FGS
LOAD data_init
LOAD default_isr

.const              0x8000       0x71be
 .const             0x8000       0x71be MAIN.o
                    0x8000                  para_minu
                    0x8070                  para_maxu
                    0x80e0                  Decay_lookup1
                    0x8146                  Decay_lookup2
                    0x81ac                  keyeqv
                    0x81b8                  lookup_table
                    0x84a8                  ar11
                    0x84b6                  ar12
                    0x84cb                  ar13
                    0x84e0                  ar14
                    0x84f1                  ar15
                    0x850d                  ar20
                    0x8522                  mmatms
                    0x8526                  mmatss
                    0x852a                  mmatci
                    0x852e                  mdiatwoptfive
                    0x8532                  mdiathreepttwo
                    0x8536                  mdiafourptzero
                    0x853a                  mdiafiveptzero
                    0x853e                  msevenzero
                    0x8545                  msixzero
                    0x854c                  mcelwel
                    0x8553                  mthreezero
                    0x855a                  mnicl
                    0x8561                  matms
                    0x8565                  matss
                    0x8569                  matalu
                    0x856d                  diazeropteight
                    0x8571                  diaoneptzero
                    0x8575                  diaonepttwo
                    0x8579                  diaoneptsix
                    0x857d                  gasarco2
                    0x8583                  gasco2
                    0x8589                  gasaro2
                    0x858f                  gasar
                    0x8595                  ar51
                    0x85aa                  ar52
                    0x85bf                  ar53
                    0x85d4                  ar54
                    0x85e9                  ar55
                    0x85fe                  ar56
                    0x8613                  ar21
                    0x8621                  ar22
                    0x8636                  ar23
                    0x864b                  ar30
                    0x8660                  tmatss
                    0x8664                  tmatdcu
                    0x8668                  tdiaoneptsix
                    0x866d                  tdiatwoptfour
                    0x8672                  tdiathreepttwo
                    0x8677                  tdiafourpteight
                    0x867c                  tdiasixptfour
                    0x8681                  tdiatwelvepteight
                    0x8686                  tbutt
                    0x868d                  tlap
                    0x8694                  tcorner
                    0x869b                  tfillet
                    0x86a2                  ar41
                    0x86b0                  ar42
                    0x86c5                  ar43
                    0x86da                  ar44
                    0x86ea                  ar50
                    0x86ff                  ar413
                    0x8725                  ar421
                    0x8734                  pmatms
                    0x873c                  pmat71t1
                    0x8744                  pmat180r
                    0x874c                  pmatss18
                    0x8754                  pmatss19
                    0x875c                  pmatalu4043
                    0x8764                  pmatalu5356
                    0x876c                  pmatalu99
                    0x8774                  pmatssfcaw1
                    0x877c                  pmatssfcaw2
                    0x8784                  cMatMigTxt
                    0x87ac                  cMatMigRootTxt
                    0x87d4                  cMatTxt
                    0x882c                  cDiaTxt
                    0x8844                  cGasTxt
                    0x885c                  cGasPercent
                    0x887c                  cGasRootPercent
                    0x889c                  ar0
                    0x88b2                  ar1
                    0x88c1                  ar2
                    0x88d1                  ar3
                    0x88e6                  mmmatgas
                    0x8936                  autocurrent
                    0x938c                  autothickness
                    0x9de2                  autovoltage
                    0xa838                  mat_dia_electro
                    0xa874                  mautocurrent
                    0xa8ee                  mat_dia_joint
                    0xa91e                  tautocurrent
                    0xa982                  newpmmmatgas
                    0xaa42                  factors
                    0xabd2                  newpautocurrent
                    0xb65e                  newpautothickness
                    0xbba4                  newpautobasevtg
                    0xc630                  newpulsemigparameter
                    0xca18                  max_Pwire_speed
                    0xcaa6                  max_Gwire_speed
                    0xcb45                  rootmmmatgas
                    0xcb96                  rootautocurrent
                    0xd5ec                  rootautothickness
                    0xe042                  rootautovoltage
                    0xea98                  font
                    0xeccc                  adorrlogo

.data_0x1000        0x1000          0x2
 .data_0x1000       0x1000          0x2 MAIN.o
                    0x1000                  iVoltage

.data_0x1002        0x1002          0x2
 .data_0x1002       0x1002          0x2 MAIN.o
                    0x1002                  iWireSpeed

.data_0x1004        0x1004          0x2
 .data_0x1004       0x1004          0x2 MAIN.o
                    0x1004                  iCurrent

.data_0x1006        0x1006          0x2
 .data_0x1006       0x1006          0x2 MAIN.o
                    0x1006                  iDiaNo

.data_0x1008        0x1008          0x2
 .data_0x1008       0x1008          0x2 MAIN.o
                    0x1008                  iGasNo

.data_0x100a        0x100a          0x2
 .data_0x100a       0x100a          0x2 MAIN.o
                    0x100a                  iMatNo

.data_0x100c        0x100c          0x2
 .data_0x100c       0x100c          0x2 MAIN.o
                    0x100c                  iArcLength

.data_0x1010        0x1010          0x2
 .data_0x1010       0x1010          0x2 MAIN.o
                    0x1010                  iActualCurrent

.data_0x1012        0x1012          0x2
 .data_0x1012       0x1012          0x2 MAIN.o
                    0x1012                  iActualVoltage

.xbss               0x0800          0x6
 .xbss              0x0800          0x6 MAIN.o
                    0x0800                  abcCoefficient

.ybss               0x1ffa          0x6
 .ybss              0x1ffa          0x6 MAIN.o
                    0x1ffa                  controlHistory

.ndata              0x1014        0xb64
 .ndata             0x1014        0xb64 MAIN.o
                    0x1014                  kCoeffs
                    0x101a                  tempkey
                    0x101b                  temp
                    0x101c                  ijk
                    0x101d                  disdigit
                    0x101e                  setdp
                    0x101f                  firstpulse1
                    0x1020                  plus111
                    0x1021                  result
                    0x1022                  minus111
                    0x1023                  new1
                    0x1024                  firstpulse2
                    0x1025                  plus222
                    0x1026                  minus222
                    0x1027                  new2
                    0x1028                  firstpulse3
                    0x1029                  plus333
                    0x102a                  minus333
                    0x102b                  new3
                    0x102c                  scan_count
                    0x102d                  encod1
                    0x102e                  encod2
                    0x102f                  encod3
                    0x1030                  old1
                    0x1031                  old2
                    0x1032                  old3
                    0x1033                  col
                    0x1034                  glcd_flag
                    0x1035                  key
                    0x1036                  ans
                    0x1037                  Prevkey
                    0x1038                  softstartf
                    0x1039                  weldmodeoff
                    0x103a                  setptimef
                    0x103b                  setstimef
                    0x103c                  openloopnew
                    0x103d                  Aweldonf
                    0x103e                  antistick_f
                    0x103f                  keyrow
                    0x1040                  keycolumn
                    0x1041                  keypad
                    0x1042                  weldingonf
                    0x1043                  PULSEavgf
                    0x1044                  adcreadf
                    0x1045                  shortcktonf
                    0x1046                  MIGweldon_detectf
                    0x1048                  pulseweldonf
                    0x104a                  twinpulsecnt
                    0x104c                  weldwiredia
                    0x1054                  power_delay
                    0x1056                  i
                    0x1058                  j
                    0x105a                  k
                    0x105c                  num1
                    0x105e                  num2
                    0x1060                  val
                    0x1062                  CURRENT
                    0x1064                  VOLTAGE
                    0x1066                  BVOLTAGE
                    0x1068                  PVOLTAGE
                    0x106a                  MVOLTAGE
                    0x106c                  TRIPVTG
                    0x106e                  daccount
                    0x1070                  MemoryChfg
                    0x1072                  count_1ms
                    0x1074                  count_20ms
                    0x1076                  count_500ms
                    0x1078                  count_200ms
                    0x107a                  cout_100us
                    0x107c                  prevwirespeed
                    0x107e                  curwirespeed
                    0x1080                  count_500ms1
                    0x1082                  count_500ms2
                    0x1084                  maxbasetime
                    0x1088                  minbasetime
                    0x108c                  pulsebase
                    0x1090                  pulsepeak
                    0x1094                  pulsestep
                    0x1098                  pdaccount
                    0x109c                  uppeakamp
                    0x10a0                  uppdaccount
                    0x10a4                  sdaccount
                    0x10a8                  bdaccount
                    0x10ac                  peakamp
                    0x10b0                  stepamp
                    0x10b4                  baseamp
                    0x10b8                  pulseduty
                    0x10bc                  weldonf
                    0x10bd                  peakf
                    0x10be                  stepf
                    0x10bf                  basef
                    0x10c0                  mbase1f
                    0x10c1                  mbase2f
                    0x10c2                  mpeak1f
                    0x10c3                  mpeak2f
                    0x10c4                  setupmode
                    0x10c5                  setpeakf
                    0x10c6                  setstepf
                    0x10c7                  setbasef
                    0x10c8                  setfreqf
                    0x10c9                  modechangef
                    0x10ca                  peaktime
                    0x10ce                  steptime
                    0x10d2                  newbasetime
                    0x10d6                  newsteptime
                    0x10da                  startpulsetime
                    0x10de                  timer_first_edge
                    0x10e0                  timer_second_edge
                    0x10e2                  mperiod
                    0x10e4                  Prev_mperiod
                    0x10e6                  mfreq
                    0x10e8                  newpeakamp
                    0x10ea                  refbtime
                    0x10ec                  maxrefbtime
                    0x10ee                  minrefbtime
                    0x10f0                  setwsfreq
                    0x10f2                  softstartcnt
                    0x10f4                  refpulsebase
                    0x10f6                  refbaseamp
                    0x10f8                  newpulsebase
                    0x10fa                  maxpulsefreq
                    0x10fc                  minpulsefreq
                    0x10fe                  scaled_baseval2
                    0x1102                  scaled_baseval22
                    0x1106                  OPEN_scaled_val1
                    0x110a                  OPEN_pidoutput1
                    0x110e                  pulsefreq
                    0x1112                  Hi_pulsefreq
                    0x1116                  Lo_pulsefreq
                    0x111a                  circular_arr
                    0x1124                  sum_circular_arr
                    0x1126                  circular_cnt
                    0x1128                  pulseontime
                    0x112a                  PULSEamp
                    0x112c                  PULSEvtg
                    0x112e                  CVOLTAGE
                    0x1130                  loadbasetime
                    0x1132                  loadbaseamp
                    0x1134                  adel
                    0x1136                  bdel
                    0x1138                  wirestickupcnt
                    0x113a                  wirestickdowncnt
                    0x113c                  SCKCURRENT
                    0x113e                  Tsampling
                    0x1142                  ARCLFACTOR
                    0x1146                  pidkp
                    0x114a                  pidki
                    0x114e                  pidkd
                    0x1152                  disp_kiterm
                    0x1154                  constpeakamp
                    0x1156                  const_arc_strike_pdaccount
                    0x1158                  count_weldonms
                    0x115a                  delarcon11
                    0x115c                  prevFltbvtg
                    0x115e                  Fltbvtg
                    0x1160                  rel_wirespeed
                    0x1162                  startbmeasuref
                    0x1163                  endbmeasuref
                    0x1164                  arcforceonf
                    0x1165                  trans2_onf
                    0x1166                  adcreadoverf
                    0x1167                  addafref
                    0x1168                  lcdpage
                    0x116a                  SUMSCKBVTGARR
                    0x116c                  SCKCNT
                    0x116e                  AVGBSCKVTG
                    0x1170                  SCKBVOLTAGE
                    0x1172                  id
                    0x1174                  jd
                    0x1176                  count_tx2_1ms
                    0x1178                  count_tx2
                    0x117a                  vtg_circular_cnt
                    0x117c                  ACT_CVOLTAGE
                    0x117e                  Shortcktf
                    0x117f                  wfchangef
                    0x1180                  stopbasef
                    0x1181                  firstpulsef
                    0x1182                  DISPavgf
                    0x1183                  SCKavgf
                    0x1184                  intkp
                    0x1185                  intki
                    0x1186                  intkd
                    0x1188                  totalsumbvtg
                    0x118c                  totalsumbcnt
                    0x1190                  newpulseduty
                    0x1194                  totalsumtrip
                    0x1198                  total_fltbvtg
                    0x119a                  Fltbvtgcnt
                    0x119c                  avg_fltbvtg
                    0x119e                  afbcurrent
                    0x11a0                  setpidbamp
                    0x11a2                  af_bdaccount
                    0x11a4                  actual_fltbvtg
                    0x11a6                  pidfactor
                    0x11a8                  pulsestartcnt
                    0x11aa                  twinpulsefreq
                    0x11ae                  twinpulseperiod
                    0x11b2                  twinpulseduty
                    0x11b6                  twinpulseratio
                    0x11ba                  twinpulseonperiod
                    0x11be                  twinpulseoffperiod
                    0x11c2                  scaled_val1
                    0x11c6                  scaled_baseval
                    0x11ca                  minoutmax
                    0x11ce                  addrippleamp
                    0x11d2                  totaltempvtg
                    0x11d4                  tempvtgcnt
                    0x11d6                  avgtempvtg
                    0x11d8                  mavgtempvtg
                    0x11da                  wirestickf
                    0x11dc                  tempvtg
                    0x11de                  presumdaccount
                    0x11e0                  ALEN_pulsefreq
                    0x11e8                  error_tx_flag
                    0x11ea                  fSampling_freq
                    0x11ee                  scalefactor2
                    0x11f0                  scalefactor1
                    0x11f2                  reference_area
                    0x11f4                  refpulsefreq
                    0x11f6                  Pvolterr
                    0x11f8                  weldonstartfcnt
                    0x11fa                  weldonstartbcnt
                    0x11fc                  scaled_output1
                    0x11fe                  maxpulseduty
                    0x1200                  minpulseduty
                    0x1202                  adaptivekp
                    0x1204                  newpulsefreq
                    0x1208                  errorrate
                    0x120c                  num11
                    0x120e                  num12
                    0x1210                  ans11
                    0x1212                  errdaccount
                    0x1214                  ptosslope
                    0x1216                  middaccount
                    0x1218                  lowdaccount
                    0x121a                  upstep
                    0x121c                  downstep
                    0x121e                  newupstep
                    0x1220                  setparaBkpf
                    0x1221                  setparaBkif
                    0x1222                  setparaBkdf
                    0x1223                  setparaPkpf
                    0x1224                  setparaPkif
                    0x1225                  setparaPkdf
                    0x1226                  paraA
                    0x1227                  paraB
                    0x1228                  paraC
                    0x1229                  dispwirespeed
                    0x122a                  pweldonf
                    0x122b                  ploopcnt
                    0x122c                  transmit2f
                    0x122d                  baseonf
                    0x122e                  togglepin
                    0x122f                  sendoncef
                    0x1230                  pulsecyclestrt
                    0x1231                  weldcyclestrt
                    0x1232                  prevpulsecycle
                    0x1233                  dummypulsecycle
                    0x1234                  startstatus1
                    0x1235                  recstatus
                    0x1236                  recwfstatus
                    0x1237                  cvrefon
                    0x1238                  pulsestrtf
                    0x1239                  Vweldon_detectf
                    0x123a                  Aweldon_detectf
                    0x123b                  openloopf
                    0x123c                  peakonf
                    0x123d                  Vweldon
                    0x123e                  mig_ocv_check_f
                    0x1240                  decaycurrent
                    0x1242                  setbaseamp
                    0x1244                  count_100ms
                    0x1246                  prevwirespeed1
                    0x1248                  micromulti
                    0x124a                  PID_interval
                    0x124c                  sckdaccount
                    0x124e                  count_key_5000ms
                    0x1250                  psetcurrent
                    0x1252                  psetvoltage
                    0x1254                  outputpulsebase
                    0x1256                  minbaseamp
                    0x1258                  maxbaseamp
                    0x125a                  presetcurrent
                    0x125c                  count4_1ms
                    0x125e                  DACREF
                    0x1260                  minbase
                    0x1262                  maxbase
                    0x1264                  maxpulsedutyterm
                    0x1266                  minpulsedutyterm
                    0x1268                  temperror1
                    0x126a                  temperror2
                    0x126c                  wfspeed
                    0x126e                  presultcur
                    0x1270                  PCURRENT
                    0x1272                  padccur
                    0x1274                  addonbase
                    0x1276                  addonbase1
                    0x1278                  tx2data
                    0x127a                  pmigsetwirespeed
                    0x127c                  pmigsetvoltage
                    0x127e                  baseunit
                    0x1280                  loopcount
                    0x1282                  loopinterval
                    0x1284                  count_1sec
                    0x1286                  uartdata1
                    0x1288                  uartdata2
                    0x128a                  MAHESH
                    0x128c                  microsec
                    0x128e                  loadpara1
                    0x128f                  iii
                    0x1290                  chksum
                    0x1291                  startptr1
                    0x1292                  arrptr
                    0x1293                  recchksum
                    0x1294                  transmitonf
                    0x1295                  transonf
                    0x1296                  frepidf
                    0x1297                  weldcycleon
                    0x1298                  ppmigsetwirespeed
                    0x129a                  ppmigsetvoltage
                    0x129c                  basecurcnt
                    0x129e                  basetime
                    0x12a0                  peakvtg
                    0x12a2                  peakvtgcnt
                    0x12a4                  totalpeakvtg
                    0x12a6                  startpulsetm
                    0x12a8                  refbasetm
                    0x12aa                  pidminbaseamp
                    0x12ac                  temp_pidminbaseamp
                    0x12ae                  pidmaxbaseamp
                    0x12b0                  temp_pidmaxbaseamp
                    0x12b2                  total_pulse_tm
                    0x12b4                  pulsetmfactor
                    0x12b8                  pulsecurfactor
                    0x12bc                  pulsefreqfactor
                    0x12c0                  MAXFBMULTIPLIER
                    0x12c4                  OPEN_pulsetm
                    0x12c6                  OPEN_steptm
                    0x12c8                  OPEN_basetm
                    0x12ca                  OPEN_pulserisetm
                    0x12cc                  OPEN_pulsefalltm
                    0x12ce                  OPEN_startpulsetm
                    0x12d0                  OPEN_uppdaccount
                    0x12d2                  OPEN_pdaccount
                    0x12d4                  OPEN_sdaccount
                    0x12d6                  OPEN_bdaccount
                    0x12d8                  OPEN_newupstep
                    0x12da                  OPEN_newdownstep
                    0x12dc                  sum_setcurrent
                    0x12de                  sumdaccount
                    0x12e0                  PID_pulsetm
                    0x12e2                  PID_steptm
                    0x12e4                  PID_basetm
                    0x12e6                  PID_pulserisetm
                    0x12e8                  PID_pulsefalltm
                    0x12ea                  PID_startpulsetm
                    0x12ec                  PID_uppdaccount
                    0x12ee                  PID_pdaccount
                    0x12f0                  PID_sdaccount
                    0x12f2                  PID_bdaccount
                    0x12f4                  PID_newupstep
                    0x12f6                  PID_newdownstep
                    0x12f8                  arcforce_amp
                    0x12fa                  FRQ_uppdaccount
                    0x12fc                  FRQ_pdaccount
                    0x12fe                  FRQ_sdaccount
                    0x1300                  FRQ_bdaccount
                    0x1302                  FRQ_newupstep
                    0x1304                  FRQ_peakamp
                    0x1306                  FRQ_stepamp
                    0x1308                  FRQ_baseamp
                    0x130a                  tarbasevtg
                    0x130c                  PFREQ_uppdaccount
                    0x130e                  PFREQ_pdaccount
                    0x1310                  PFREQ_sdaccount
                    0x1312                  PFREQ_bdaccount
                    0x1314                  PFREQ_newupstep
                    0x1316                  PFREQ_peakamp
                    0x1318                  PFREQ_stepamp
                    0x131a                  PFREQ_baseamp
                    0x131c                  base_amp_twin_pulse
                    0x131e                  min_base_amp
                    0x1320                  max_base_amp
                    0x1322                  min_freq
                    0x1324                  max_freq
                    0x1326                  step_base
                    0x1328                  step_freq
                    0x132a                  base_ramp_down_flag
                    0x132c                  twn_rmp_down_offst_tm
                    0x132e                  extint1status1
                    0x132f                  extint2status1
                    0x1330                  extint1status2
                    0x1331                  extint2status2
                    0x1332                  pincheck
                    0x1333                  ext1ans
                    0x1334                  ext2ans
                    0x1335                  count_1ms_ext
                    0x1336                  tx2chksum
                    0x1337                  starttx2
                    0x1338                  tx2counter
                    0x1339                  startstatustx2
                    0x133a                  tx2statuscounter
                    0x133b                  firsttimef
                    0x133c                  DISPamp
                    0x133e                  DISPvtg
                    0x1340                  DISPerr
                    0x1342                  SCKamp
                    0x1344                  SCKvtg
                    0x1346                  SCKerr
                    0x1348                  SCKVOLTAGE
                    0x134a                  sck_current_ref
                    0x134c                  temp_mjp
                    0x134e                  FLTSCKvtg
                    0x1350                  prevFLTSCKvtg
                    0x1352                  disp_newbaseamp
                    0x1354                  pulsecycle
                    0x1355                  oper
                    0x1356                  displedptr1
                    0x1357                  displedptr2
                    0x1358                  ak47
                    0x1359                  emg_sendf
                    0x135a                  changestatusf
                    0x135b                  voltagechangef
                    0x135c                  OCVON_command
                    0x135d                  prev_OCVON_command
                    0x135e                  power_on_in_mma
                    0x135f                  power_on_in_tig
                    0x1360                  T_weldingonf
                    0x1361                  M_weldingonf
                    0x1362                  mili1_100
                    0x1364                  pluspara1
                    0x1366                  pluscount1
                    0x1368                  minuspara1
                    0x136a                  minuscount1
                    0x136c                  pulserisetm
                    0x136e                  pulsefalltm
                    0x1370                  pulsetm
                    0x1372                  steptm
                    0x1374                  basetm
                    0x1376                  disptemp
                    0x1378                  disptemp1
                    0x137a                  decayslope
                    0x137e                  linearcnt
                    0x1382                  decaycnt
                    0x1386                  decaycount
                    0x138a                  ptosmslope
                    0x138e                  upcnt
                    0x1392                  tempval
                    0x1396                  mkf
                    0x139a                  Adaptive_freq_pidf
                    0x139b                  keychange1
                    0x139c                  keychange2
                    0x139e                  newdownstep
                    0x13a0                  downcnt
                    0x13a2                  baseavgcnt
                    0x13a4                  idecaycount
                    0x13a6                  refstepamp
                    0x13a8                  tpulsetime
                    0x13aa                  pulserisetime
                    0x13ac                  pulsefalltime
                    0x13ae                  adtemp
                    0x13b2                  ECONSTANT
                    0x13b6                  shiftbvtgf
                    0x13b7                  weldon_detectf
                    0x13b8                  SUMBVTGARR
                    0x13ba                  BCNT
                    0x13bc                  AVGBVTG
                    0x13be                  weldoncnt
                    0x13c0                  ptigsetcurrent
                    0x13c2                  ripplecnt
                    0x13c4                  ripplecurrent
                    0x13c6                  dispautocurrent
                    0x13c8                  dispautothickness
                    0x13ca                  parcforce
                    0x13cc                  testmahe
                    0x13ce                  parclength
                    0x13d0                  parcbasevtg
                    0x13d2                  tempmjp
                    0x13d4                  refpeakamp
                    0x13d6                  refpeaktm
                    0x13d8                  eedata
                    0x13da                  RP_BVOLTAGE
                    0x13dc                  bdaccount_rp
                    0x13de                  prowno
                    0x13e0                  piii
                    0x13e2                  piditeration
                    0x13e4                  piditerationcnt
                    0x13e6                  pulsepararr
                    0x13fa                  program_number
                    0x13fb                  tungsten_size
                    0x13fc                  disparclen
                    0x13fd                  setrefparaf
                    0x13fe                  ftemp
                    0x1402                  fwirespeed
                    0x1406                  wirespeed
                    0x1408                  current1
                    0x140a                  current2
                    0x140c                  voltage1
                    0x140e                  voltage2
                    0x1410                  thickness1
                    0x1412                  thickness2
                    0x1414                  Tbasevoltage1
                    0x1416                  Tbasevoltage2
                    0x1418                  Tbasevoltage
                    0x141a                  strttmr
                    0x141b                  torchval
                    0x141c                  dummytorch
                    0x141d                  prevpscyclestatus
                    0x141e                  prevwfcyclestatus
                    0x141f                  torchrelease
                    0x1420                  cratersetup
                    0x1421                  torchenable
                    0x1422                  crateron
                    0x1423                  fastexit
                    0x1424                  setlcdweldparameter
                    0x1425                  clearlcdf
                    0x1426                  lcdmigpointer
                    0x1427                  updatelcdf
                    0x1428                  lcdscan_flag
                    0x1429                  point
                    0x142a                  memoryzone
                    0x142b                  AFcnt
                    0x142c                  timerval
                    0x142e                  cntsecond
                    0x1430                  voltageref
                    0x1432                  fttrefvolt
                    0x1434                  cvoffsetref
                    0x1436                  prevpreflow
                    0x1438                  prevburnback
                    0x143a                  prevpostflow
                    0x143c                  prevcratervoltage
                    0x143e                  prevcraterspeed
                    0x1440                  prevgcraterspeed
                    0x1442                  prevpulseweldmode
                    0x1444                  prevtwinpulsefreq
                    0x1446                  prevtwinpulseduty
                    0x1448                  prevtwinpulseratio
                    0x144a                  prev_pcreepspeedrate
                    0x144c                  timecount11
                    0x144e                  dispnum1
                    0x1450                  dispnum2
                    0x1452                  AFvtg
                    0x1454                  don
                    0x1456                  donmin
                    0x1458                  donmax
                    0x145a                  prevdon
                    0x145c                  max_lcd_cnt
                    0x145e                  EE_Stat
                    0x1460                  Act_EE_Addr
                    0x1464                  SAV_TBLPAG
                    0x1466                  aks
                    0x1468                  diffpeakvtg
                    0x146a                  read_tjointtype
                    0x146c                  read_gsetcurrent
                    0x146e                  pinductance
                    0x1470                  read_gthickness
                    0x1472                  newpidstepbasetime
                    0x1474                  read_ptwinpulseratio
                    0x1476                  read_pcreepspeedrate
                    0x1478                  read_ptwinpulseduty
                    0x147a                  read_ptwinpulsefreq
                    0x147c                  read_ppulseweldmode
                    0x147e                  Totalpulsepower
                    0x1482                  Peakpowerconstant
                    0x1486                  Steppowerconstant
                    0x148a                  Basepowerconstant
                    0x148e                  actpvtg
                    0x1492                  actpcount
                    0x1496                  pulseoncnt
                    0x1498                  baseoncnt
                    0x149a                  pulserefonf
                    0x149b                  baserefonf
                    0x149c                  startpcvloop
                    0x149e                  sumpulsevoltage
                    0x14a2                  sumbasevoltage
                    0x14a6                  pulsevoltagecnt
                    0x14a8                  basevoltagecnt
                    0x14aa                  msrpulseoncnt
                    0x14ac                  msrbaseoncnt
                    0x14ae                  msrpulsevtg
                    0x14b0                  msrbasevtg
                    0x14b2                  avgpulsevtg
                    0x14b4                  dispavgpulsevtg
                    0x14b6                  msrbpvtg
                    0x14b8                  FRQbaseamp
                    0x14ba                  FRQbasevtg
                    0x14bc                  fbavgpulsevtg
                    0x14be                  prevavgpulsevtg
                    0x14c0                  FRQ_sckscaled_val
                    0x14c2                  PFREQ_sckscaled_val
                    0x14c4                  peaktmfactor
                    0x14c8                  basetmfactor
                    0x14cc                  peakvtgpart
                    0x14d0                  basevtgpart
                    0x14d4                  PFREQ
                    0x14d8                  PFREQERR
                    0x14dc                  tmmsrpulseoncnt
                    0x14e0                  tmmsrbaseoncnt
                    0x14e4                  tmpeakvtg
                    0x14e8                  tmbasevtg
                    0x14ec                  flttmpeakvtg
                    0x14f0                  prevtmpeakvtg
                    0x14f4                  peakvtgarrcnt
                    0x14f6                  avgpeakvtg
                    0x14f8                  mpulsevtgcnt
                    0x14fa                  avgmpulsevtg
                    0x14fc                  mpulsevtg
                    0x14fe                  migdaccount
                    0x1500                  sum_mpulsevtg
                    0x1504                  target_bvtg
                    0x1508                  msrpulsevtgf
                    0x1509                  power_on_flag
                    0x150a                  sf_kpgain
                    0x150c                  sf_kigain
                    0x150e                  sf_kdgain
                    0x1510                  sf_outputmax
                    0x1514                  sf_outputmin
                    0x1518                  sf_accumulator
                    0x151c                  sf_pterm
                    0x1520                  sf_iterm
                    0x1524                  sf_dterm
                    0x1528                  sf_scalefactor
                    0x152a                  sf_mig_scalefactor
                    0x152c                  sf_pidoutput
                    0x152e                  scaled_sf_pidoutput
                    0x1530                  lcd_saverecall_ptr
                    0x1532                  save_location
                    0x1534                  Recall_location
                    0x1536                  prev_save_location
                    0x1538                  prev_Recall_location
                    0x153a                  mma_tig_error_latch
                    0x153b                  universal_error_flag
                    0x153c                  universal_error_latch
                    0x153d                  UV_errorf
                    0x153e                  OV_errorf
                    0x153f                  TH_errorf
                    0x1540                  HS_errorf
                    0x1541                  comm_errorf
                    0x1542                  ERROR_4_errorf
                    0x1543                  pressure_error_flag
                    0x1544                  over_curr_error_flag
                    0x1545                  motor_encoder_errorf
                    0x1546                  trip_adc_complet_flag
                    0x1548                  looperrorvtg
                    0x154a                  communication_time_out
                    0x154c                  weld_p_para_latch
                    0x154d                  setrefparaf_crater
                    0x154e                  P_crater_current
                    0x1550                  G_crater_current
                    0x1552                  prevgcreepspeedrate
                    0x1554                  prevhr
                    0x1556                  prevmin
                    0x1558                  prevsec
                    0x155a                  arc_on_reset_count
                    0x155c                  read_pmig_auto0_man1
                    0x155e                  pmig_auto0_man1
                    0x155f                  prev_pmig_auto0_man1
                    0x1560                  password_set_count
                    0x1562                  password
                    0x1564                  set_password
                    0x1566                  temp_password
                    0x1568                  passwod_set_flag
                    0x1569                  password_protection_enabled
                    0x156a                  lcd_update_password
                    0x156b                  prev_2t_4t_mode
                    0x156c                  iPulseAddress
                    0x156e                  iMigAddress
                    0x1570                  iMigRootAddress
                    0x1572                  iPercentagecnt
                    0x1574                  iProgramCnt
                    0x1576                  iProNo
                    0x1578                  character
                    0x1978                  sCRC_table

.nbss               0x0806        0x588
 .nbss              0x0806        0x588 MAIN.o
                    0x0870                  fooPID
                    0x087a                  TypeDP
                    0x087b                  TypeU
                    0x0880                  parau
                    0x08f0                  para_tempu
                    0x0960                  pidParams1
                    0x09c4                  pidParams2
                    0x0a28                  pstowfstru
                    0x0a3f                  psstatusu
                    0x0a40                  commandu
                    0x0a41                  erroru
                    0x0a43                  wfstatusu
                    0x0a44                  EEPROM_struct_mig
                    0x0a45                  EEPROM_struct_pmig
                    0x0a46                  arcontime
                    0x0a4c                  diswin1
                    0x0a4f                  diswin2
                    0x0a52                  arr
                    0x0a5a                  secondpulse1
                    0x0a5b                  secondpulse2
                    0x0a5c                  secondpulse3
                    0x0a5e                  vtg_circular_arr
                    0x0a6e                  kp2_prev
                    0x0a76                  ki2_prev
                    0x0a7e                  kd2_prev
                    0x0a86                  kp1_prev
                    0x0a8e                  ki1_prev
                    0x0a96                  kd1_prev
                    0x0a9e                  kpgamma2
                    0x0aa2                  kigamma2
                    0x0aa6                  kdgamma2
                    0x0aaa                  Kiterm2
                    0x0aae                  Kiterm1
                    0x0ab2                  kpgamma1
                    0x0ab6                  kigamma1
                    0x0aba                  kdgamma1
                    0x0abe                  scaled_val2
                    0x0ac0                  pulsebase_trial
                    0x0ac2                  rec_arr
                    0x0adc                  low_base_amp
                    0x0ade                  high_base_amp
                    0x0ae0                  BVTGARR
                    0x0ae8                  dispautovoltage
                    0x0aea                  prevcreepspeedrate
                    0x0aec                  flt
                    0x0aee                  read_mhotstart
                    0x0af0                  read_msetcurrent
                    0x0af2                  read_marcforce
                    0x0af4                  read_mmaterial
                    0x0af6                  read_melectrodesize
                    0x0af8                  read_melectrotype
                    0x0afa                  read_tpreflow
                    0x0afc                  read_tstartcurrent
                    0x0afe                  read_tupslopetime
                    0x0b00                  read_tsetcurrent
                    0x0b02                  read_tendcurrent
                    0x0b04                  read_tmaterial
                    0x0b06                  read_tplatesize
                    0x0b08                  read_gpreflow
                    0x0b0a                  read_gsetvoltage
                    0x0b0c                  read_gcratercurrent
                    0x0b0e                  read_gcratervoltage
                    0x0b10                  read_gburnback
                    0x0b12                  read_gsetwspeed
                    0x0b14                  read_gpostflow
                    0x0b16                  read_gmaterial
                    0x0b18                  read_gdiameter
                    0x0b1a                  read_ggas
                    0x0b1c                  read_inductance
                    0x0b1e                  read_gcratervoltag
                    0x0b20                  prev_eeprom_mig_struct
                    0x0b22                  read_ppreflow
                    0x0b24                  read_psetcurrent
                    0x0b26                  read_psetvoltage
                    0x0b28                  read_pcratercurrent
                    0x0b2a                  read_pcratervoltage
                    0x0b2c                  read_pburnback
                    0x0b2e                  read_psetwspeed
                    0x0b30                  read_pthickness
                    0x0b32                  read_parclength
                    0x0b34                  read_ppostflow
                    0x0b36                  read_pmaterial
                    0x0b38                  read_pdiameter
                    0x0b3a                  read_pgas
                    0x0b3c                  prev_eeprom_pmig_struct
                    0x0b3e                  peakvtgarr
                    0x0b46                  mpulsevtgarr
                    0x0b66                  sf_setpoint
                    0x0b68                  sf_feedback
                    0x0b6a                  sf_error
                    0x0b6c                  sf_preverror
                    0x0b6e                  sf_pid
                    0x0b72                  mult_factor
                    0x0b74                  max_Pws
                    0x0b76                  max_Gws
                    0x0b78                  error4_flag
                    0x0b79                  error_4_check4t
                    0x0b7a                  er1
                    0x0b7c                  er2
                    0x0b7e                  er3
                    0x0b80                  err11_delay_counter
                    0x0b82                  dVal_press1
                    0x0b84                  dVal_press0
                    0x0b86                  cntsecond_er4
                    0x0b88                  prev_arcontimehr
                    0x0b8a                  prev_arcontimemin
                    0x0b8c                  cEditfg
                    0x0b8d                  cTestfg
                    0x0b8e                  cWfVChangefg
                    0x0b8f                  iCntChk
                    0x0b90                  setPasswordfg
                    0x0b91                  cPWstarblinkcnt
                    0x0b92                  iTest1
                    0x0b94                  iTest2
                    0x0b96                  iSampleCnt
                    0x0b98                  iRxwfVoltage
                    0x0b9a                  cTestmmr
                    0x0b9c                  ChkForAnotherfg
                    0x0b9d                  ocvonfg
                    0x0b9e                  Testfg
                    0x0b9f                  WfEditfg
                    0x0ba0                  iCalHiFreq
                    0x0ba2                  iCalLowFreq
                    0x0ba4                  cLoadFreqfg
                    0x0ba6                  iLoadFreqCntr
                    0x0ba8                  cLoadReffg
                    0x0baa                  iLoadRefCntr
                    0x0bac                  cTogglePinfg
                    0x0bae                  iTwinSetVolt
                    0x0bb0                  iTwinSetVolt2
                    0x0bb2                  iTwinwirespeed
                    0x0bb4                  fTwinwirespeed
                    0x0bb8                  cLoadVoltfg
                    0x0bb9                  cSoftStrfg
                    0x0bba                  cSoftStrCnt
                    0x0bbb                  cSoftDonefg
                    0x0bbc                  cByte_cntr
                    0x0bbd                  cSlave_addr
                    0x0bbe                  cFunction_code
                    0x0bbf                  cNo_of_byte
                    0x0bc0                  cPort_addr
                    0x0bc1                  String_received_fg
                    0x0bc2                  cFrameStrfg
                    0x0bc3                  cFrameFoundfg
                    0x0bc4                  cChardlyStrfg
                    0x0bc5                  cParaUpdatefg
                    0x0bc6                  cCharDelay
                    0x0bc7                  cReceive_buffer
                    0x0bef                  Response_array
                    0x0c18                  iCrc_querry_word
                    0x0c1a                  sCRC_response_word
                    0x0c1c                  iInput_reg_addr
                    0x0c1e                  iPara_addr
                    0x0c20                  iPara_update
                    0x0c22                  iInput_data
                    0x0c24                  cFrameSendfg
                    0x0c25                  cEndPulsefg
                    0x0c26                  cEndPulseCnt
                    0x0c28                  ENPULSECURR
                    0x0c2a                  iFbVoltage
                    0x0c2c                  iFreqError
                    0x0c2e                  cFreqErrorupdatefg
                    0x0c30                  count_6ms
                    0x0c32                  iWrAddr
                    0x0c34                  ireadaddr
                    0x0c36                  ireadmmry
                    0x0c38                  cE2p
                    0x0c40                  cReadmat
                    0x0c47                  cGasdia
                    0x0c48                  cUpKeyLongPressfg
                    0x0c49                  cMemoryScannerfg
                    0x0c4a                  ctogglefg
                    0x0c4b                  cProgramupdatefg
                    0x0c4c                  cUpdatenamefg
                    0x0c4e                  isaveaddr
                    0x0c50                  iPno
                    0x0c52                  iReadPno
                    0x0c54                  iReadpara
                    0x0ce4                  iPulsepara
                    0x0cf8                  iProgramLoadLoc
                    0x0cfa                  iProgramStrLoc
                    0x0cfc                  prevProgramStrLoc
                    0x0cfe                  prevProgramLoadLoc
                    0x0d00                  iFirstaddr
                    0x0d02                  iSecondaddr
                    0x0d04                  iUpKeyLongPresscnt
                    0x0d06                  iProgramChkLoc
                    0x0d08                  prevProgramChkLoc
                    0x0d0a                  iProgupdateptr
                    0x0d0c                  iProgRestoreLoc
                    0x0d0e                  prevprogrestoreLoc
                    0x0d10                  iCursorptr
                    0x0d12                  iPnoChk
                    0x0d14                  iArrayindex
                    0x0d16                  prevarrayindex
                    0x0d18                  iDiaindex
                    0x0d1a                  prevdiaindex
                    0x0d1c                  iGasindex
                    0x0d1e                  prevgasindex
                    0x0d20                  pulseptr
                    0x0d22                  prevpulseptr
                    0x0d24                  iPulseparachk
                    0x0d38                  cProgramChk
                    0x0d3e                  cGasdiachk
                    0x0d3f                  cParachangeflag
                    0x0d40                  cDnKeyLongPressfg
                    0x0d42                  cDnKeyLongPresscnt
                    0x0d44                  iThickChk
                    0x0d46                  iMatChk
                    0x0d48                  iGasChk
                    0x0d4a                  iProgramNo
                    0x0d4c                  iMigProgNo
                    0x0d4e                  cWeldmode
                    0x0d4f                  cMatarray
                    0x0d59                  cGasDiaupdate
                    0x0d5a                  cMatchFoundfg
                    0x0d5b                  ctoggleflag
                    0x0d5c                  cUpdatecursorfg
                    0x0d5d                  cPMainMenufg
                    0x0d5e                  iE2pData
                    0x0d60                  cE2pData
                    0x0d62                  iKeyDoubleChkCntr
                    0x0d64                  count200Msec
                    0x0d66                  iMacMenuCntr
                    0x0d67                  cCursorPosition
                    0x0d68                  cLineNo
                    0x0d69                  cSerialPortTask
                    0x0d6a                  cMacMenuNo
                    0x0d6b                  cMacMenufg
                    0x0d6c                  cKeyPressStartfg
                    0x0d6d                  cMainScreenfg
                    0x0d6e                  cCursorBlinkfg
                    0x0d6f                  cCursorOnfg
                    0x0d70                  c200Msecfg
                    0x0d71                  cCursorOfffg
                    0x0d72                  disp_data_arr
                    0x0d76                  mmat
                    0x0d78                  mdia
                    0x0d7a                  melectrode
                    0x0d7c                  mat
                    0x0d7e                  dia
                    0x0d80                  gas
                    0x0d82                  tmat
                    0x0d84                  tdia
                    0x0d86                  tjoint
                    0x0d88                  pmat
                    0x0d8a                  pdia
                    0x0d8c                  pgas

.dinit            0x00e61c        0x7fa
 .dinit           0x00e61c        0x7fa data_init

.isr              0x00ee16          0x2
 .isr             0x00ee16          0x2 default_isr
                  0x00ee16                  _DefaultInterrupt
