Archive member included because of file (symbol)

c:/program files (x86)/microchip/mplab c30/bin/../lib\libpic30-coff.a(crt1.o)
                              (_resetALT)
c:/program files (x86)/microchip/mplab c30/bin/../lib\libpic30-coff.a(crt0.o)
                              (_resetPRI)
c:/program files (x86)/microchip/mplab c30/bin/../lib\libm-coff.a(floatsisf.o)
                              MAIN.o (__floatsisf)
c:/program files (x86)/microchip/mplab c30/bin/../lib\libm-coff.a(addsf3.o)
                              MAIN.o (__subsf3)
c:/program files (x86)/microchip/mplab c30/bin/../lib\libm-coff.a(feqltle.o)
                              MAIN.o (__lesf2)
c:/program files (x86)/microchip/mplab c30/bin/../lib\libm-coff.a(fgtge.o)
                              MAIN.o (__gtsf2)
c:/program files (x86)/microchip/mplab c30/bin/../lib\libm-coff.a(mulsf3.o)
                              MAIN.o (__mulsf3)
c:/program files (x86)/microchip/mplab c30/bin/../lib\libm-coff.a(fixunssfsi.o)
                              MAIN.o (__fixunssfsi)
c:/program files (x86)/microchip/mplab c30/bin/../lib\libm-coff.a(divsf3.o)
                              MAIN.o (__divsf3)
c:/program files (x86)/microchip/mplab c30/bin/../lib\libm-coff.a(fixsfsi.o)
                              MAIN.o (__fixsfsi)
c:/program files (x86)/microchip/mplab c30/bin/../lib\libm-coff.a(fpack.o)
                              c:/program files (x86)/microchip/mplab c30/bin/../lib\libm-coff.a(floatsisf.o) (_fpack)
c:/program files (x86)/microchip/mplab c30/bin/../lib\libm-coff.a(funpack2.o)
                              c:/program files (x86)/microchip/mplab c30/bin/../lib\libm-coff.a(addsf3.o) (_funpack2)
c:/program files (x86)/microchip/mplab c30/bin/../lib\libm-coff.a(futil.o)
                              c:/program files (x86)/microchip/mplab c30/bin/../lib\libm-coff.a(addsf3.o) (_fPropagateNaN)
c:/program files (x86)/microchip/mplab c30/bin/../lib\libm-coff.a(fcompare.o)
                              c:/program files (x86)/microchip/mplab c30/bin/../lib\libm-coff.a(feqltle.o) (_fcompare)
c:/program files (x86)/microchip/mplab c30/bin/../lib\libm-coff.a(funpack.o)
                              c:/program files (x86)/microchip/mplab c30/bin/../lib\libm-coff.a(fixunssfsi.o) (_funpack)


Selected CodeGuard Options:
  FGS:GSS:GSS_STD
  FGS:GCP:CODE_PROT_ON

CodeGuard FLASH Memory:
  boot    (none)
  secure  (none)
  general 0x100 to 0x17ffe

CodeGuard RAM Memory:
  general 0x800 to 0x279f
  secure  (none)
  boot    (none)

CodeGuard EEPROM Memory:
  general 0x7ff000 to 0x7fffff
  secure  (none)
  boot    (none)


Program Memory Usage

section                    address   length (PC units)   length (bytes) (dec)
-------                    -------   -----------------   --------------------
.reset                           0                 0x4             0x6  (6)
.ivt                           0x4                0x7c            0xba  (186)
.aivt                         0x84                0x7c            0xba  (186)
.text                        0x100              0x51a4          0x7a76  (31350)
.const                      0x52a4               0xbac          0x1182  (4482)
.dinit                      0x5e50               0x59e           0x86d  (2157)
.isr                        0x63ee                 0x2             0x3  (3)
__FOSC                    0xf80000                 0x2             0x3  (3)
__FWDT                    0xf80002                 0x2             0x3  (3)
__FBORPOR                 0xf80004                 0x2             0x3  (3)
__FGS                     0xf8000a                 0x2             0x3  (3)

                     Total program memory used (bytes):         0x95ee  (38382) 26%


Data Memory Usage

section                    address      alignment gaps    total length  (dec)
-------                    -------      --------------    -------------------
.xbss                        0x800                   0             0x6  (6)
.ndata                       0x806                   0           0x846  (2118)
.nbss                       0x104c                   0           0x70a  (1802)
.ybss                       0x1ffa                   0             0x6  (6)

                        Total data memory used (bytes):          0xf5c  (3932) 48%


Dynamic Memory Usage

region                     address                      maximum length  (dec)
------                     -------                      ---------------------
heap                             0                                   0  (0)
stack                       0x1756                               0x8a4  (2212)

                        Maximum dynamic memory (bytes):          0x8a4  (2212)


External Symbols in Data Memory (by address):

                    0x0800                  _abcCoefficient
                    0x0806                  _kCoeffs
                    0x080c                  _tempkey
                    0x080d                  _temp
                    0x080e                  _ijk
                    0x080f                  _disdigit
                    0x0810                  _setdp
                    0x0811                  _firstpulse1
                    0x0812                  _plus111
                    0x0813                  _result
                    0x0814                  _minus111
                    0x0815                  _new1
                    0x0816                  _firstpulse2
                    0x0817                  _plus222
                    0x0818                  _minus222
                    0x0819                  _new2
                    0x081a                  _firstpulse3
                    0x081b                  _plus333
                    0x081c                  _minus333
                    0x081d                  _new3
                    0x081e                  _scan_count
                    0x081f                  _encod1
                    0x0820                  _encod2
                    0x0821                  _encod3
                    0x0822                  _old1
                    0x0823                  _old2
                    0x0824                  _old3
                    0x0825                  _col
                    0x0826                  _glcd_flag
                    0x0827                  _key
                    0x0828                  _ans
                    0x0829                  _Prevkey
                    0x082a                  _softstartf
                    0x082b                  _weldmodeoff
                    0x082c                  _setptimef
                    0x082d                  _setstimef
                    0x082e                  _openloopnew
                    0x082f                  _Aweldonf
                    0x0830                  _keyrow
                    0x0831                  _keycolumn
                    0x0832                  _keypad
                    0x0833                  _weldingonf
                    0x0834                  _PULSEavgf
                    0x0835                  _adcreadf
                    0x0836                  _shortcktonf
                    0x0837                  _MIGweldon_detectf
                    0x0838                  _pulseweldonf
                    0x083a                  _twinpulsecnt
                    0x083c                  _weldwiredia
                    0x0844                  _power_delay
                    0x0846                  _i
                    0x0848                  _j
                    0x084a                  _k
                    0x084c                  _num1
                    0x084e                  _num2
                    0x0850                  _val
                    0x0852                  _CURRENT
                    0x0854                  _VOLTAGE
                    0x0856                  _BVOLTAGE
                    0x0858                  _PVOLTAGE
                    0x085a                  _MVOLTAGE
                    0x085c                  _TRIPVTG
                    0x085e                  _daccount
                    0x0860                  _count_1ms
                    0x0862                  _count_20ms
                    0x0864                  _count_500ms
                    0x0866                  _count_200ms
                    0x0868                  _cout_100us
                    0x086a                  _prevwirespeed
                    0x086c                  _curwirespeed
                    0x086e                  _count_500ms1
                    0x0870                  _count_500ms2
                    0x0872                  _maxbasetime
                    0x0876                  _minbasetime
                    0x087a                  _pulsebase
                    0x087e                  _pulsepeak
                    0x0882                  _pulsestep
                    0x0886                  _pdaccount
                    0x088a                  _uppeakamp
                    0x088e                  _uppdaccount
                    0x0892                  _sdaccount
                    0x0896                  _bdaccount
                    0x089a                  _peakamp
                    0x089e                  _stepamp
                    0x08a2                  _baseamp
                    0x08a6                  _pulseduty
                    0x08aa                  _weldonf
                    0x08ab                  _peakf
                    0x08ac                  _stepf
                    0x08ad                  _basef
                    0x08ae                  _mbase1f
                    0x08af                  _mbase2f
                    0x08b0                  _mpeak1f
                    0x08b1                  _mpeak2f
                    0x08b2                  _setupmode
                    0x08b3                  _setpeakf
                    0x08b4                  _setstepf
                    0x08b5                  _setbasef
                    0x08b6                  _setfreqf
                    0x08b7                  _modechangef
                    0x08b8                  _peaktime
                    0x08bc                  _steptime
                    0x08c0                  _newbasetime
                    0x08c4                  _newsteptime
                    0x08c8                  _startpulsetime
                    0x08cc                  _timer_first_edge
                    0x08ce                  _timer_second_edge
                    0x08d0                  _mperiod
                    0x08d2                  _Prev_mperiod
                    0x08d4                  _mfreq
                    0x08d6                  _newpeakamp
                    0x08d8                  _refbtime
                    0x08da                  _maxrefbtime
                    0x08dc                  _minrefbtime
                    0x08de                  _setwsfreq
                    0x08e0                  _softstartcnt
                    0x08e2                  _refpulsebase
                    0x08e4                  _refbaseamp
                    0x08e6                  _newpulsebase
                    0x08e8                  _maxpulsefreq
                    0x08ea                  _minpulsefreq
                    0x08ec                  _scaled_baseval2
                    0x08f0                  _scaled_baseval22
                    0x08f4                  _OPEN_scaled_val1
                    0x08f8                  _OPEN_pidoutput1
                    0x08fc                  _pulsefreq
                    0x0900                  _Hi_pulsefreq
                    0x0904                  _Lo_pulsefreq
                    0x0908                  _circular_arr
                    0x0912                  _sum_circular_arr
                    0x0914                  _circular_cnt
                    0x0916                  _pulseontime
                    0x0918                  _PULSEamp
                    0x091a                  _PULSEvtg
                    0x091c                  _CVOLTAGE
                    0x091e                  _loadbasetime
                    0x0920                  _loadbaseamp
                    0x0922                  _adel
                    0x0924                  _bdel
                    0x0926                  _wirestickupcnt
                    0x0928                  _wirestickdowncnt
                    0x092a                  _SCKCURRENT
                    0x092c                  _ARCLFACTOR
                    0x0930                  _pidkp
                    0x0934                  _pidki
                    0x0938                  _pidkd
                    0x093c                  _disp_kiterm
                    0x093e                  _constpeakamp
                    0x0940                  _const_arc_strike_pdaccount
                    0x0942                  _count_weldonms
                    0x0944                  _delarcon11
                    0x0946                  _prevFltbvtg
                    0x0948                  _Fltbvtg
                    0x094a                  _rel_wirespeed
                    0x094c                  _startbmeasuref
                    0x094d                  _endbmeasuref
                    0x094e                  _arcforceonf
                    0x094f                  _trans2_onf
                    0x0950                  _adcreadoverf
                    0x0951                  _addafref
                    0x0952                  _lcdpage
                    0x0954                  _SUMSCKBVTGARR
                    0x0956                  _SCKCNT
                    0x0958                  _AVGBSCKVTG
                    0x095a                  _SCKBVOLTAGE
                    0x095c                  _id
                    0x095e                  _jd
                    0x0960                  _count_tx2_1ms
                    0x0962                  _count_tx2
                    0x0964                  _vtg_circular_cnt
                    0x0966                  _ACT_CVOLTAGE
                    0x0968                  _Shortcktf
                    0x0969                  _wfchangef
                    0x096a                  _stopbasef
                    0x096b                  _firstpulsef
                    0x096c                  _DISPavgf
                    0x096d                  _SCKavgf
                    0x096e                  _intkp
                    0x096f                  _intkd
                    0x0970                  _totalsumbvtg
                    0x0974                  _totalsumbcnt
                    0x0978                  _newpulseduty
                    0x097c                  _totalsumtrip
                    0x0980                  _total_fltbvtg
                    0x0982                  _Fltbvtgcnt
                    0x0984                  _avg_fltbvtg
                    0x0986                  _afbcurrent
                    0x0988                  _setpidbamp
                    0x098a                  _af_bdaccount
                    0x098c                  _actual_fltbvtg
                    0x098e                  _pidfactor
                    0x0990                  _pulsestartcnt
                    0x0992                  _twinpulsefreq
                    0x0996                  _twinpulseperiod
                    0x099a                  _twinpulseduty
                    0x099e                  _twinpulseratio
                    0x09a2                  _twinpulseonperiod
                    0x09a6                  _twinpulseoffperiod
                    0x09aa                  _scaled_val1
                    0x09ae                  _scaled_baseval
                    0x09b2                  _minoutmax
                    0x09b6                  _addrippleamp
                    0x09ba                  _totaltempvtg
                    0x09bc                  _tempvtgcnt
                    0x09be                  _avgtempvtg
                    0x09c0                  _mavgtempvtg
                    0x09c2                  _wirestickf
                    0x09c4                  _tempvtg
                    0x09c6                  _presumdaccount
                    0x09c8                  _ALEN_pulsefreq
                    0x09d0                  _error_tx_flag
                    0x09d2                  _fSampling_freq
                    0x09d6                  _scalefactor2
                    0x09d8                  _scalefactor1
                    0x09da                  _reference_area
                    0x09dc                  _refpulsefreq
                    0x09de                  _Pvolterr
                    0x09e0                  _weldonstartfcnt
                    0x09e2                  _weldonstartbcnt
                    0x09e4                  _scaled_output1
                    0x09e6                  _maxpulseduty
                    0x09e8                  _minpulseduty
                    0x09ea                  _adaptivekp
                    0x09ec                  _newpulsefreq
                    0x09f0                  _errorrate
                    0x09f4                  _num11
                    0x09f6                  _num12
                    0x09f8                  _ans11
                    0x09fa                  _errdaccount
                    0x09fc                  _ptosslope
                    0x09fe                  _middaccount
                    0x0a00                  _lowdaccount
                    0x0a02                  _upstep
                    0x0a04                  _downstep
                    0x0a06                  _newupstep
                    0x0a08                  _setparaBkpf
                    0x0a09                  _setparaBkif
                    0x0a0a                  _setparaBkdf
                    0x0a0b                  _setparaPkpf
                    0x0a0c                  _setparaPkif
                    0x0a0d                  _setparaPkdf
                    0x0a0e                  _paraA
                    0x0a0f                  _paraB
                    0x0a10                  _paraC
                    0x0a11                  _dispwirespeed
                    0x0a12                  _pweldonf
                    0x0a13                  _ploopcnt
                    0x0a14                  _transmit2f
                    0x0a15                  _baseonf
                    0x0a16                  _togglepin
                    0x0a17                  _sendoncef
                    0x0a18                  _pulsecyclestrt
                    0x0a19                  _weldcyclestrt
                    0x0a1a                  _prevpulsecycle
                    0x0a1b                  _dummypulsecycle
                    0x0a1c                  _startstatus1
                    0x0a1d                  _recstatus
                    0x0a1e                  _recwfstatus
                    0x0a1f                  _cvrefon
                    0x0a20                  _pulsestrtf
                    0x0a21                  _Vweldon_detectf
                    0x0a22                  _Aweldon_detectf
                    0x0a23                  _openloopf
                    0x0a24                  _peakonf
                    0x0a25                  _Vweldon
                    0x0a26                  _decaycurrent
                    0x0a28                  _setbaseamp
                    0x0a2a                  _count_100ms
                    0x0a2c                  _prevwirespeed1
                    0x0a2e                  _micromulti
                    0x0a30                  _PID_interval
                    0x0a32                  _sckdaccount
                    0x0a34                  _psetcurrent
                    0x0a36                  _psetvoltage
                    0x0a38                  _outputpulsebase
                    0x0a3a                  _minbaseamp
                    0x0a3c                  _maxbaseamp
                    0x0a3e                  _presetcurrent
                    0x0a40                  _count4_1ms
                    0x0a42                  _DACREF
                    0x0a44                  _minbase
                    0x0a46                  _maxbase
                    0x0a48                  _maxpulsedutyterm
                    0x0a4a                  _minpulsedutyterm
                    0x0a4c                  _temperror1
                    0x0a4e                  _temperror2
                    0x0a50                  _wfspeed
                    0x0a52                  _presultcur
                    0x0a54                  _PCURRENT
                    0x0a56                  _padccur
                    0x0a58                  _addonbase
                    0x0a5a                  _addonbase1
                    0x0a5c                  _tx2data
                    0x0a5e                  _pmigsetwirespeed
                    0x0a60                  _pmigsetvoltage
                    0x0a62                  _baseunit
                    0x0a64                  _loopcount
                    0x0a66                  _loopinterval
                    0x0a68                  _count_1sec
                    0x0a6a                  _uartdata1
                    0x0a6c                  _uartdata2
                    0x0a6e                  _MAHESH
                    0x0a70                  _microsec
                    0x0a72                  _loadpara1
                    0x0a73                  _iii
                    0x0a74                  _chksum
                    0x0a75                  _startptr1
                    0x0a76                  _arrptr
                    0x0a77                  _recchksum
                    0x0a78                  _transmitonf
                    0x0a79                  _transonf
                    0x0a7a                  _frepidf
                    0x0a7b                  _weldcycleon
                    0x0a7c                  _ppmigsetwirespeed
                    0x0a7e                  _ppmigsetvoltage
                    0x0a80                  _basecurcnt
                    0x0a82                  _basetime
                    0x0a84                  _peakvtg
                    0x0a86                  _peakvtgcnt
                    0x0a88                  _totalpeakvtg
                    0x0a8a                  _startpulsetm
                    0x0a8c                  _refbasetm
                    0x0a8e                  _pidminbaseamp
                    0x0a90                  _temp_pidminbaseamp
                    0x0a92                  _pidmaxbaseamp
                    0x0a94                  _temp_pidmaxbaseamp
                    0x0a96                  _total_pulse_tm
                    0x0a98                  _pulsetmfactor
                    0x0a9c                  _pulsecurfactor
                    0x0aa0                  _pulsefreqfactor
                    0x0aa4                  _MAXFBMULTIPLIER
                    0x0aa8                  _OPEN_pulsetm
                    0x0aaa                  _OPEN_steptm
                    0x0aac                  _OPEN_basetm
                    0x0aae                  _OPEN_pulserisetm
                    0x0ab0                  _OPEN_pulsefalltm
                    0x0ab2                  _OPEN_startpulsetm
                    0x0ab4                  _OPEN_uppdaccount
                    0x0ab6                  _OPEN_pdaccount
                    0x0ab8                  _OPEN_sdaccount
                    0x0aba                  _OPEN_bdaccount
                    0x0abc                  _OPEN_newupstep
                    0x0abe                  _OPEN_newdownstep
                    0x0ac0                  _sum_setcurrent
                    0x0ac2                  _sumdaccount
                    0x0ac4                  _PID_pulsetm
                    0x0ac6                  _PID_steptm
                    0x0ac8                  _PID_basetm
                    0x0aca                  _PID_pulserisetm
                    0x0acc                  _PID_pulsefalltm
                    0x0ace                  _PID_startpulsetm
                    0x0ad0                  _PID_uppdaccount
                    0x0ad2                  _PID_pdaccount
                    0x0ad4                  _PID_sdaccount
                    0x0ad6                  _PID_bdaccount
                    0x0ad8                  _PID_newupstep
                    0x0ada                  _PID_newdownstep
                    0x0adc                  _arcforce_amp
                    0x0ade                  _FRQ_uppdaccount
                    0x0ae0                  _FRQ_pdaccount
                    0x0ae2                  _FRQ_sdaccount
                    0x0ae4                  _FRQ_bdaccount
                    0x0ae6                  _FRQ_newupstep
                    0x0ae8                  _FRQ_peakamp
                    0x0aea                  _FRQ_stepamp
                    0x0aec                  _FRQ_baseamp
                    0x0aee                  _tarbasevtg
                    0x0af0                  _PFREQ_uppdaccount
                    0x0af2                  _PFREQ_pdaccount
                    0x0af4                  _PFREQ_sdaccount
                    0x0af6                  _PFREQ_bdaccount
                    0x0af8                  _PFREQ_newupstep
                    0x0afa                  _PFREQ_peakamp
                    0x0afc                  _PFREQ_stepamp
                    0x0afe                  _PFREQ_baseamp
                    0x0b00                  _base_amp_twin_pulse
                    0x0b02                  _min_base_amp
                    0x0b04                  _max_base_amp
                    0x0b06                  _min_freq
                    0x0b08                  _max_freq
                    0x0b0a                  _step_base
                    0x0b0c                  _step_freq
                    0x0b0e                  _base_ramp_down_flag
                    0x0b10                  _twn_rmp_down_offst_tm
                    0x0b12                  _extint1status1
                    0x0b13                  _extint2status1
                    0x0b14                  _extint1status2
                    0x0b15                  _extint2status2
                    0x0b16                  _pincheck
                    0x0b17                  _ext1ans
                    0x0b18                  _ext2ans
                    0x0b19                  _count_1ms_ext
                    0x0b1a                  _tx2chksum
                    0x0b1b                  _starttx2
                    0x0b1c                  _tx2counter
                    0x0b1d                  _startstatustx2
                    0x0b1e                  _tx2statuscounter
                    0x0b1f                  _firsttimef
                    0x0b20                  _DISPfoot
                    0x0b22                  _DISPamp
                    0x0b24                  _DISPvtg
                    0x0b26                  _DISPerr
                    0x0b28                  _SCKamp
                    0x0b2a                  _SCKvtg
                    0x0b2c                  _SCKerr
                    0x0b2e                  _SCKfoot
                    0x0b30                  _SCKVOLTAGE
                    0x0b32                  _sck_current_ref
                    0x0b34                  _temp_mjp
                    0x0b36                  _FLTSCKvtg
                    0x0b38                  _prevFLTSCKvtg
                    0x0b3a                  _disp_newbaseamp
                    0x0b3c                  _footref_precent
                    0x0b40                  _pulsecycle
                    0x0b41                  _oper
                    0x0b42                  _displedptr1
                    0x0b43                  _displedptr2
                    0x0b44                  _ak47
                    0x0b45                  _emg_sendf
                    0x0b46                  _changestatusf
                    0x0b47                  _currentchangef
                    0x0b48                  _voltagechangef
                    0x0b49                  _OCVON_command
                    0x0b4a                  _prev_OCVON_command
                    0x0b4b                  _power_on_in_mma
                    0x0b4c                  _power_on_in_tig
                    0x0b4d                  _T_weldingonf
                    0x0b4e                  _M_weldingonf
                    0x0b50                  _mili1_100
                    0x0b52                  _pluspara1
                    0x0b54                  _pluscount1
                    0x0b56                  _minuspara1
                    0x0b58                  _minuscount1
                    0x0b5a                  _pulserisetm
                    0x0b5c                  _pulsefalltm
                    0x0b5e                  _pulsetm
                    0x0b60                  _steptm
                    0x0b62                  _basetm
                    0x0b64                  _disptemp
                    0x0b66                  _disptemp1
                    0x0b68                  _decayslope
                    0x0b6c                  _linearcnt
                    0x0b70                  _decaycnt
                    0x0b74                  _decaycount
                    0x0b78                  _ptosmslope
                    0x0b7c                  _upcnt
                    0x0b80                  _tempval
                    0x0b84                  _mkf
                    0x0b88                  _Adaptive_freq_pidf
                    0x0b89                  _keychange1
                    0x0b8a                  _keychange2
                    0x0b8c                  _newdownstep
                    0x0b8e                  _downcnt
                    0x0b90                  _baseavgcnt
                    0x0b92                  _idecaycount
                    0x0b94                  _refstepamp
                    0x0b96                  _tpulsetime
                    0x0b98                  _pulserisetime
                    0x0b9a                  _pulsefalltime
                    0x0b9c                  _adtemp
                    0x0ba0                  _ECONSTANT
                    0x0ba4                  _shiftbvtgf
                    0x0ba5                  _weldon_detectf
                    0x0ba6                  _SUMBVTGARR
                    0x0ba8                  _BCNT
                    0x0baa                  _AVGBVTG
                    0x0bac                  _weldoncnt
                    0x0bae                  _ptigsetcurrent
                    0x0bb0                  _ripplecnt
                    0x0bb2                  _ripplecurrent
                    0x0bb4                  _dispautocurrent
                    0x0bb6                  _dispautothickness
                    0x0bb8                  _parcforce
                    0x0bba                  _testmahe
                    0x0bbc                  _parclength
                    0x0bbe                  _parcbasevtg
                    0x0bc0                  _tempmjp
                    0x0bc2                  _refpeakamp
                    0x0bc4                  _refpeaktm
                    0x0bc6                  _eedata
                    0x0bc8                  _RP_BVOLTAGE
                    0x0bca                  _bdaccount_rp
                    0x0bcc                  _prowno
                    0x0bce                  _piii
                    0x0bd0                  _piditeration
                    0x0bd2                  _piditerationcnt
                    0x0bd4                  _pulsepararr
                    0x0be8                  _program_number
                    0x0be9                  _tungsten_size
                    0x0bea                  _disparclen
                    0x0beb                  _setrefparaf
                    0x0bec                  _ftemp
                    0x0bf0                  _fwirespeed
                    0x0bf4                  _wirespeed
                    0x0bf6                  _current1
                    0x0bf8                  _current2
                    0x0bfa                  _voltage1
                    0x0bfc                  _voltage2
                    0x0bfe                  _thickness1
                    0x0c00                  _thickness2
                    0x0c02                  _Tbasevoltage1
                    0x0c04                  _Tbasevoltage2
                    0x0c06                  _Tbasevoltage
                    0x0c08                  _strttmr
                    0x0c09                  _torchval
                    0x0c0a                  _dummytorch
                    0x0c0b                  _prevpscyclestatus
                    0x0c0c                  _prevwfcyclestatus
                    0x0c0d                  _torchrelease
                    0x0c0e                  _cratersetup
                    0x0c0f                  _torchenable
                    0x0c10                  _crateron
                    0x0c11                  _fastexit
                    0x0c12                  _setlcdweldparameter
                    0x0c13                  _clearlcdf
                    0x0c14                  _vOffsetmax
                    0x0c15                  _lcdmigpointer
                    0x0c16                  _updatelcdf
                    0x0c17                  _lcdscan_flag
                    0x0c18                  _point
                    0x0c19                  _memoryzone
                    0x0c1a                  _AFcnt
                    0x0c1c                  _timerval
                    0x0c1e                  _cntsecond
                    0x0c20                  _voltageref
                    0x0c22                  _fttrefvolt
                    0x0c24                  _cvoffsetref
                    0x0c26                  _prevpreflow
                    0x0c28                  _prevburnback
                    0x0c2a                  _prevpostflow
                    0x0c2c                  _prevcratervoltage
                    0x0c2e                  _prevgcraterspeed
                    0x0c30                  _prevpulseweldmode
                    0x0c32                  _prevtwinpulsefreq
                    0x0c34                  _prevtwinpulseduty
                    0x0c36                  _prevtwinpulseratio
                    0x0c38                  _prev_pcreepspeedrate
                    0x0c3a                  _timecount11
                    0x0c3c                  _dispnum1
                    0x0c3e                  _dispnum2
                    0x0c40                  _AFvtg
                    0x0c42                  _don
                    0x0c44                  _donmin
                    0x0c46                  _donmax
                    0x0c48                  _prevdon
                    0x0c4a                  _max_lcd_cnt
                    0x0c4c                  _EE_Stat
                    0x0c4e                  _Act_EE_Addr
                    0x0c52                  _SAV_TBLPAG
                    0x0c54                  _aks
                    0x0c56                  _diffpeakvtg
                    0x0c58                  _read_tjointtype
                    0x0c5a                  _read_gsetcurrent
                    0x0c5c                  _read_tpostflow
                    0x0c5e                  _pinductance
                    0x0c60                  _read_gthickness
                    0x0c62                  _newpidstepbasetime
                    0x0c64                  _read_ptwinpulseratio
                    0x0c66                  _read_pcreepspeedrate
                    0x0c68                  _read_ptwinpulseduty
                    0x0c6a                  _read_ptwinpulsefreq
                    0x0c6c                  _read_ppulseweldmode
                    0x0c6e                  _Totalpulsepower
                    0x0c72                  _Peakpowerconstant
                    0x0c76                  _Steppowerconstant
                    0x0c7a                  _Basepowerconstant
                    0x0c7e                  _actpvtg
                    0x0c82                  _actpcount
                    0x0c86                  _pulseoncnt
                    0x0c88                  _baseoncnt
                    0x0c8a                  _pulserefonf
                    0x0c8b                  _baserefonf
                    0x0c8c                  _startpcvloop
                    0x0c8e                  _sumpulsevoltage
                    0x0c92                  _sumbasevoltage
                    0x0c96                  _pulsevoltagecnt
                    0x0c98                  _basevoltagecnt
                    0x0c9a                  _msrpulseoncnt
                    0x0c9c                  _msrbaseoncnt
                    0x0c9e                  _msrpulsevtg
                    0x0ca0                  _msrbasevtg
                    0x0ca2                  _avgpulsevtg
                    0x0ca4                  _dispavgpulsevtg
                    0x0ca6                  _msrbpvtg
                    0x0ca8                  _FRQbaseamp
                    0x0caa                  _FRQbasevtg
                    0x0cac                  _fbavgpulsevtg
                    0x0cae                  _prevavgpulsevtg
                    0x0cb0                  _FRQ_sckscaled_val
                    0x0cb2                  _PFREQ_sckscaled_val
                    0x0cb4                  _peaktmfactor
                    0x0cb8                  _basetmfactor
                    0x0cbc                  _peakvtgpart
                    0x0cc0                  _basevtgpart
                    0x0cc4                  _PFREQ
                    0x0cc8                  _PFREQERR
                    0x0ccc                  _tmmsrpulseoncnt
                    0x0cd0                  _tmmsrbaseoncnt
                    0x0cd4                  _tmpeakvtg
                    0x0cd8                  _tmbasevtg
                    0x0cdc                  _flttmpeakvtg
                    0x0ce0                  _prevtmpeakvtg
                    0x0ce4                  _peakvtgarrcnt
                    0x0ce6                  _avgpeakvtg
                    0x0ce8                  _mpulsevtgcnt
                    0x0cea                  _avgmpulsevtg
                    0x0cec                  _mpulsevtg
                    0x0cee                  _migdaccount
                    0x0cf0                  _sum_mpulsevtg
                    0x0cf4                  _target_bvtg
                    0x0cf8                  _msrpulsevtgf
                    0x0cf9                  _power_on_flag
                    0x0cfa                  _scale_factor
                    0x0cfc                  _integral_old
                    0x0d00                  _sf_kpgain
                    0x0d02                  _sf_kigain
                    0x0d04                  _sf_kdgain
                    0x0d06                  _sf_outputmax
                    0x0d0a                  _sf_outputmin
                    0x0d0e                  _sf_accumulator
                    0x0d12                  _sf_pterm
                    0x0d16                  _sf_iterm
                    0x0d1a                  _sf_dterm
                    0x0d1e                  _sf_scalefactor
                    0x0d20                  _sf_mig_scalefactor
                    0x0d22                  _sf_pidoutput
                    0x0d24                  _scaled_sf_pidoutput
                    0x0d26                  _lcd_saverecall_ptr
                    0x0d28                  _save_location
                    0x0d2a                  _Recall_location
                    0x0d2c                  _prev_save_location
                    0x0d2e                  _prev_Recall_location
                    0x0d30                  _mma_tig_error_latch
                    0x0d31                  _universal_error_flag
                    0x0d32                  _universal_error_latch
                    0x0d33                  _UV_errorf
                    0x0d34                  _OV_errorf
                    0x0d35                  _TH_errorf
                    0x0d36                  _HS_errorf
                    0x0d37                  _comm_errorf
                    0x0d38                  _ERROR_4_errorf
                    0x0d39                  _pressure_error_flag
                    0x0d3a                  _over_curr_error_flag
                    0x0d3b                  _motor_encoder_errorf
                    0x0d3c                  _trip_adc_complet_flag
                    0x0d3e                  _looperrorvtg
                    0x0d40                  _communication_time_out
                    0x0d42                  _weld_p_para_latch
                    0x0d43                  _setrefparaf_crater
                    0x0d44                  _P_crater_current
                    0x0d46                  _G_crater_current
                    0x0d48                  _prevgcreepspeedrate
                    0x0d4a                  _prevhr
                    0x0d4c                  _prevmin
                    0x0d4e                  _prevsec
                    0x0d50                  _arc_on_reset_count
                    0x0d52                  _read_pmig_auto0_man1
                    0x0d54                  _pmig_auto0_man1
                    0x0d55                  _prev_pmig_auto0_man1
                    0x0d56                  _password_set_count
                    0x0d58                  _password
                    0x0d5a                  _passwod_set_flag
                    0x0d5b                  _password_protection_enabled
                    0x0d5c                  _lcd_update_password
                    0x0d5d                  _prev_2t_4t_mode
                    0x0d5e                  _prevtpreflow
                    0x0d60                  _prevtdownslopetime
                    0x0d62                  _prevtendcurrent
                    0x0d64                  _prevtpostflowtime
                    0x0d66                  _read_tigmodepreflow
                    0x0d68                  _tig_twot_fourt
                    0x0d6a                  _foot_1_normal_0
                    0x0d6c                  _prev_foot_1_normal_0
                    0x0d6e                  _tig_pulse1_normal0
                    0x0d70                  _prev_tig_pulse1_normal0
                    0x0d72                  _read_tigmodestartcurrent
                    0x0d74                  _read_tigmodeupslopetime
                    0x0d76                  _read_tigdownslopetime
                    0x0d78                  _read_tigmodeendcurrent
                    0x0d7a                  _read_tigmodepostflow
                    0x0d7c                  _read_tig_twot_fourt
                    0x0d7e                  _time_100ms
                    0x0d80                  _Time_ms
                    0x0d82                  _tig4tupslpbrkcurrent
                    0x0d84                  _read_foot_1_normal_0
                    0x0d86                  _tig_torch_relse_4t
                    0x0d87                  _dummytigtorch
                    0x0d88                  _tig_ocv_on_flag
                    0x0d89                  _torchreleasef
                    0x0d8a                  _currerrf
                    0x0d8b                  _upslopef
                    0x0d8c                  _downslopef
                    0x0d8e                  _dVal_torch0
                    0x0d90                  _dVal_torch1
                    0x0d92                  _tig_weld_cycle_current
                    0x0d94                  _usb_0error_1ok
                    0x0d95                  _cPonCntr
                    0x0d96                  _usb_start_fg
                    0x0d98                  _samplecnt
                    0x0d9a                  _chkLongkeyPressfg
                    0x0d9c                  _short_delay
                    0x0d9e                  _short_circuit_cnt_100ms
                    0x0da0                  _longKeyPressfg
                    0x0da2                  _dValm_torch0
                    0x0da4                  _dValm_torch1
                    0x0da6                  _fRef_pwm_new
                    0x0daa                  _fRef_pwm_new_result
                    0x0dae                  _vOffset
                    0x0db0                  _expon_lookup
                    0x1110                  _fooPID
                    0x111a                  _TypeDP
                    0x111b                  _TypeU
                    0x1120                  _parau
                    0x1190                  _para_tempu
                    0x1200                  _pidParams1
                    0x1264                  _pidParams2
                    0x12c8                  _pstowfstru
                    0x12de                  _psstatusu
                    0x12df                  _commandu
                    0x12e0                  _erroru
                    0x12e2                  _wfstatusu
                    0x12e3                  _EEPROM_struct_mig
                    0x12e4                  _EEPROM_struct_pmig
                    0x12e5                  _EEPROM_struct_tig
                    0x12e8                  _arcontime
                    0x12ee                  _pontime
                    0x12f2                  _trans_ps_wf_arr
                    0x130b                  _diswin1
                    0x130e                  _diswin2
                    0x1311                  _arr
                    0x1319                  _secondpulse1
                    0x131a                  _secondpulse2
                    0x131b                  _secondpulse3
                    0x131c                  _vtg_circular_arr
                    0x132c                  _intki
                    0x132d                  _cEditfg
                    0x132e                  _kp2_prev
                    0x1336                  _ki2_prev
                    0x133e                  _kd2_prev
                    0x1346                  _kp1_prev
                    0x134e                  _ki1_prev
                    0x1356                  _kd1_prev
                    0x135e                  _kpgamma2
                    0x1362                  _kigamma2
                    0x1366                  _kdgamma2
                    0x136a                  _Kiterm2
                    0x136e                  _Kiterm1
                    0x1372                  _kpgamma1
                    0x1376                  _kigamma1
                    0x137a                  _kdgamma1
                    0x137e                  _scaled_val2
                    0x1380                  _pulsebase_trial
                    0x1382                  _rec_arr
                    0x1398                  _low_base_amp
                    0x139a                  _high_base_amp
                    0x139c                  _BVTGARR
                    0x13a4                  _dispautovoltage
                    0x13a6                  _prevcreepspeedrate
                    0x13a8                  _flt
                    0x13aa                  _read_mhotstart
                    0x13ac                  _read_msetcurrent
                    0x13ae                  _read_marcforce
                    0x13b0                  _read_mmaterial
                    0x13b2                  _read_melectrodesize
                    0x13b4                  _read_melectrotype
                    0x13b6                  _read_tpreflow
                    0x13b8                  _read_tstartcurrent
                    0x13ba                  _read_tupslopetime
                    0x13bc                  _read_tsetcurrent
                    0x13be                  _read_tendcurrent
                    0x13c0                  _read_tmaterial
                    0x13c2                  _read_tplatesize
                    0x13c4                  _read_gpreflow
                    0x13c6                  _read_gsetvoltage
                    0x13c8                  _read_gcratercurrent
                    0x13ca                  _read_gcratervoltage
                    0x13cc                  _read_gburnback
                    0x13ce                  _read_gsetwspeed
                    0x13d0                  _read_gpostflow
                    0x13d2                  _read_gmaterial
                    0x13d4                  _read_gdiameter
                    0x13d6                  _read_ggas
                    0x13d8                  _read_inductance
                    0x13da                  _read_gcratervoltag
                    0x13dc                  _prev_eeprom_mig_struct
                    0x13de                  _prev_eeprom_tig_struct
                    0x13e0                  _read_ppreflow
                    0x13e2                  _read_psetcurrent
                    0x13e4                  _read_psetvoltage
                    0x13e6                  _read_pcratercurrent
                    0x13e8                  _read_pcratervoltage
                    0x13ea                  _read_pburnback
                    0x13ec                  _read_psetwspeed
                    0x13ee                  _read_pthickness
                    0x13f0                  _read_parclength
                    0x13f2                  _read_ppostflow
                    0x13f4                  _read_pmaterial
                    0x13f6                  _read_pdiameter
                    0x13f8                  _read_pgas
                    0x13fa                  _prev_eeprom_pmig_struct
                    0x13fc                  _peakvtgarr
                    0x1404                  _mpulsevtgarr
                    0x1424                  _sf_setpoint
                    0x1426                  _sf_feedback
                    0x1428                  _sf_error
                    0x142a                  _sf_neg_error
                    0x142c                  _sf_preverror
                    0x142e                  _pidvalue
                    0x1430                  _mult_factor
                    0x1432                  _Ts
                    0x1434                  _fKi
                    0x1438                  _fFd
                    0x143c                  _sf_pid
                    0x1440                  _Testfg
                    0x1442                  _Ti
                    0x1446                  _max_Pws
                    0x1448                  _max_Gws
                    0x144a                  _error4_flag
                    0x144b                  _error_4_check4t
                    0x144c                  _WireFeeder_errorf
                    0x144d                  _Motor_OverLoad_errorf
                    0x144e                  _Error_flag
                    0x144f                  _err_dispfg
                    0x1450                  _er1
                    0x1452                  _er2
                    0x1454                  _er3
                    0x1456                  _err11_delay_counter
                    0x1458                  _dVal_press1
                    0x145a                  _dVal_press0
                    0x145c                  _cntsecond_er4
                    0x145e                  _prev_arcontimehr
                    0x1460                  _prev_arcontimemin
                    0x1462                  _set_password
                    0x1464                  _temp_password
                    0x1466                  _prevtstartcurrent
                    0x1468                  _prevtupslopetime
                    0x146a                  _pwmresult
                    0x146c                  _timerval_1ms
                    0x146e                  _footref_I
                    0x1470                  _msec10_cntr
                    0x1472                  _Upslope_cntr
                    0x1474                  _Downslope_cntr
                    0x1476                  _UP_Step
                    0x147a                  _Down_Step
                    0x147e                  _Upcurrent
                    0x1482                  _Downcurrent
                    0x1486                  _cyclestart
                    0x1487                  _TORCH_SW
                    0x1488                  _oper_tig
                    0x148a                  _first_digits
                    0x148b                  _second_digits
                    0x148c                  _third_digits
                    0x148d                  _fourth_digits
                    0x148e                  _iCntChk
                    0x148f                  _pon_usb_fg
                    0x1490                  _load_data_into_usb_fg
                    0x1491                  _HeaderWrfg
                    0x1492                  _usbDataLogStartfg
                    0x1493                  _setPasswordfg
                    0x1494                  _invalid_recall_fg
                    0x1496                  _iSecCntr
                    0x1498                  _iHeaderdly
                    0x149a                  _testmigfg
                    0x149c                  _iTest
                    0x149e                  _iTestpeak1
                    0x14a0                  _iTestpeak2
                    0x14a2                  _iTestpeak3
                    0x14a4                  _iPrevDacCnt
                    0x14a6                  _cSign1
                    0x14a7                  _cSign2
                    0x14a8                  _cSign3
                    0x14a9                  _gasChkfg
                    0x14aa                  _tig_ocv_check_f
                    0x14ab                  _ocvonfg
                    0x14ac                  _weld_short_tig_fg
                    0x14ad                  _cCableChkfg
                    0x14ae                  _cCableChkCntr
                    0x14af                  _cCableErrorfg
                    0x14b0                  _cNofbVoltCnt
                    0x14b2                  _iWeldcount
                    0x14b4                  _ChkForAnotherfg
                    0x14b5                  _cErrorNo
                    0x14b6                  _cFlashCnt
                    0x14b7                  _cFalshMsgfg
                    0x14b8                  _cOneSecfg
                    0x14ba                  _iFlashCntr
                    0x14bc                  _sf_accumulator_new
                    0x14c0                  _strRXFramefg
                    0x14c1                  _analogFramRxfg
                    0x14c2                  _iRXCntr
                    0x14c4                  _cPWstarblinkcnt
                    0x14c5                  _WfEditfg
                    0x14c6                  _fAcc
                    0x14c8                  _fPrevError
                    0x14ca                  _cAnRemoteFrameArr
                    0x14d4                  _cMIGMenumodelockfg
                    0x14d5                  _cGasChkMenufg
                    0x14d6                  _cStartGasChkcntfg
                    0x14d7                  _cTIGMenumodelockfg
                    0x14d8                  _ReferenceReadfg
                    0x14da                  _iGasChkMenuModecnt
                    0x14dc                  _iGAScnt
                    0x14de                  _count_gaschk_1ms
                    0x14e0                  _iMenuModecnt
                    0x14e2                  _count_gas_1sec
                    0x14e4                  _iResetcnt1
                    0x14e6                  _cMIGMenuMode
                    0x14e7                  _cMIGMenuOnfg
                    0x14e8                  _cTIGMenuMode
                    0x14e9                  _cTIGMenuOnfg
                    0x14ea                  _cEncupdatefg
                    0x14eb                  _cGaschkDowncntfg
                    0x14ec                  _cGASMenuMode
                    0x14ed                  _cMMAmenumodelockfg
                    0x14ee                  _cMMAMenuMode
                    0x14ef                  _cMMAparaupdatefg
                    0x14f0                  _keyfoundfg
                    0x14f1                  _remotekeyfoundfg
                    0x14f2                  _cRemoteCalfg
                    0x14f3                  _cArcOnfoundfg
                    0x14f4                  _cResetMenufg
                    0x14f6                  _iTimeResetSwitchcnt
                    0x14f8                  _cRemoteDetectedfg
                    0x14fa                  _iRemotecnt
                    0x14fc                  _iActualRemotecurr
                    0x14fe                  _iRemoteCurrcnt
                    0x1500                  _iPrevSetcurrent
                    0x1502                  _iPrevDisplaySetcurrent
                    0x1504                  _iRemoteCheckcnt
                    0x1506                  _fRemoteCheckCurr
                    0x150a                  _fRemoteCurr
                    0x150e                  _fOffset
                    0x1512                  _cMMA_TIG_setcurrentfg
                    0x1513                  _cDispFBvtgfg
                    0x1514                  _cArcforcefg
                    0x1515                  _cHotfg
                    0x1516                  _cArcForceTimefg
                    0x1517                  _cAntistickfg
                    0x1518                  _cFastUpdateFBvtg
                    0x151a                  _DISPArcforcevtg
                    0x151c                  _ADCARCFVresult
                    0x151e                  _iHotstartcount
                    0x1520                  _cnt200ms
                    0x1522                  _cnt1sec
                    0x1524                  _iArcforcecnt
                    0x1526                  _iArcforceVtgcnt
                    0x1528                  _ARCFORCEVOLTAGE
                    0x152a                  _cnt200ms_tig
                    0x152c                  _cnt1sec_tig
                    0x152e                  _cShortCktfg
                    0x152f                  _cDispUpdatefg
                    0x1530                  _cMig_arcdetectfg
                    0x1531                  _torch
                    0x1532                  _cMotorfg
                    0x1533                  _cCreepSpeedDowncntfg
                    0x1534                  _iMigOffset
                    0x1536                  _iMigSlope
                    0x1538                  _iDacCnt
                    0x153a                  _mig_preflow
                    0x153c                  _mig_burnback
                    0x153e                  _mig_postflow
                    0x1540                  _mig_creepspeedrate
                    0x1542                  _mig_Kp
                    0x1544                  _mig_Ki
                    0x1546                  _mig_Kd
                    0x1548                  _mig_Ka
                    0x154a                  _mig_Kb
                    0x154c                  _mig_Kc
                    0x154e                  _iGasCntr
                    0x1550                  _iMigWeldPara
                    0x1552                  _iTemp
                    0x1554                  _iMigWeldPara1
                    0x1556                  _iMigWeldPara2
                    0x1558                  _iMigWeldPara3
                    0x155a                  _iMigWeldPara4
                    0x155c                  _iMigWeldPara5
                    0x155e                  _iMigWeldPara6
                    0x1560                  _igascntr
                    0x1562                  _cMigDACref
                    0x1563                  _cMigWeldparaupdatefg
                    0x1564                  _cSwitchPressfg
                    0x1565                  _cSwitchPressfg1
                    0x1566                  _cSwitchPressfg2
                    0x1567                  _cSwitchPressfg3
                    0x1568                  _cSwitchPressfg4
                    0x1569                  _cDebounce2
                    0x156a                  _iDebounce1
                    0x156c                  _iTestcntr
                    0x156e                  _iMotorPIDcnt
                    0x1570                  _cMIGWeldStartfg
                    0x1572                  _iFBmotor_finalvtg
                    0x1574                  _iRefmvtg
                    0x1576                  _iPrevMotorvtg
                    0x1578                  _iResult_motorvtg
                    0x157a                  _iFBmvtg
                    0x157c                  _iFBMotorvtg
                    0x157e                  _Kp
                    0x1580                  _Ki
                    0x1582                  _Kd
                    0x1584                  _Tsampling
                    0x1586                  _ReferenceSetpoint
                    0x1588                  _FeedbackSetpoint
                    0x158a                  _scalefactor
                    0x158c                  _error1
                    0x158e                  _error_new
                    0x1590                  _error_old
                    0x1592                  _error_neg
                    0x1594                  _integral_new
                    0x1598                  _pidoutmax
                    0x159c                  _pidoutmin
                    0x15a0                  _outmax
                    0x15a2                  _outmin
                    0x15a4                  _PWM_Ref
                    0x15a6                  _DAC_Ref
                    0x15a8                  _iMIGParaMenucnt
                    0x15aa                  _cPWMLockfg
                    0x15ab                  _cTestWSLockfg
                    0x15ac                  _cGaSMenufg
                    0x15ad                  _cMIGMenufg
                    0x15ae                  _cForcefullyOFFOCVfg
                    0x15af                  _cLock4TModefg
                    0x15b0                  _iPWMClosecnt
                    0x15b2                  _iCreepSpeedcnt
                    0x15b4                  _iActualWireSpeedcnt
                    0x15b6                  _iActualWS
                    0x15b8                  _iTest2
                    0x15ba                  _scaled_val
                    0x15be                  _pidoutput
                    0x15c2                  _motor_integral_acc
                    0x15c6                  _cCreepEndfg
                    0x15c7                  _cUpdate4TModefg
                    0x15c8                  _cUpdate2TModefg
                    0x15c9                  _cUpdateModefg
                    0x15ca                  _cActualWireSpeedfg
                    0x15cb                  _c4Tstatus
                    0x15cc                  _cCreepDetectafterPreflowfg
                    0x15cd                  _cMotorStopfg
                    0x15ce                  _cTestMotorStopfg
                    0x15cf                  _cTorchStatus
                    0x15d0                  _cCreepKifg
                    0x15d1                  _cMIGParaMenufg
                    0x15d2                  _cMotorStopForENDPulsefg
                    0x15d4                  _fCalKp
                    0x15d8                  _fCalKi
                    0x15dc                  _cCreepLatchfg
                    0x15de                  _read_gcreepspeedtime
                    0x15e0                  _mig_creepspeedtime
                    0x15e2                  _read_iOffset
                    0x15e4                  _cDacoutfg
                    0x15e5                  _cLockDACreffg
                    0x15e6                  _cTestVtgLockfg
                    0x15e8                  _iConvertedDACRef
                    0x15ea                  _CUrrrent
                    0x15ec                  _iCreepSpeedDowncnt
                    0x15ee                  _iSlowIncrementWireSpeed
                    0x15f0                  _cEnDCurrUpdatefg
                    0x15f1                  _cRemoteEnDCurrUpdatefg
                    0x15f2                  _iPrevWireSpeed
                    0x15f4                  _IRcurr
                    0x15f6                  _iWireSpeed
                    0x15f8                  _iVoltage
                    0x15fa                  _Total_SCKE1result
                    0x15fe                  _Total_SCKE2result
                    0x1602                  _Total_DISPT1result
                    0x1606                  _Total_DISPT2result
                    0x160a                  _ADCT1result
                    0x160c                  _ADCT2result
                    0x160e                  _iTrip1vtg
                    0x1610                  _iTrip2vtg
                    0x1612                  _DISPT1vtg
                    0x1614                  _DISPT2vtg
                    0x1616                  _cDispFBcurrfg
                    0x1617                  _cWeldondetectfg
                    0x1618                  _cWeldonfg
                    0x161a                  _iWeldoncnt
                    0x161c                  _adc16
                    0x161e                  _Channel
                    0x1620                  _iACT_CURRENT
                    0x1622                  _Total_AvgCurr
                    0x1624                  _cSoftStrfg
                    0x1625                  _cSoftDonefg
                    0x1626                  _cWaitToStopMtrfg
                    0x1628                  _cSoftStrCnt
                    0x162a                  _iWaitToStopMtrCnt
                    0x162c                  _iPrevPidOutput
                    0x162e                  _iPidCal
                    0x1630                  _iDummyvoltageref
                    0x1632                  _cTestfg
                    0x1633                  _cStartPulsefg
                    0x1634                  _cPulseCnt
                    0x1635                  _cStartCCReffg
                    0x1636                  _cPIDtriggerfg
                    0x1637                  _cTorchPressFoundfg
                    0x1638                  _iStartSetVoltCnt
                    0x163a                  _iSimpleCnt
                    0x163c                  _iStepforStartVoltRef
                    0x163e                  _iSoftStrTimecnt
                    0x1640                  _iMaxWSLimit
                    0x1642                  _cWeldStartfg
                    0x1643                  _cSoftStartUSecfg
                    0x1644                  _cSoftStrTimefg
                    0x1646                  _iStartCurr
                    0x1648                  _iEndPulseCurr
                    0x164a                  _cLoadFreqfg
                    0x164c                  _iLoadFreqCntr
                    0x164e                  _cLoadReffg
                    0x164f                  _cKeychangefg
                    0x1650                  _iLoadRefCntr
                    0x1652                  _iPrevRef
                    0x1654                  _cFrameSendfg
                    0x1655                  _cEndPulsefg
                    0x1656                  _cEndPulseCnt
                    0x1657                  _cMainScreenfg
                    0x1658                  _cCursorPosition
                    0x1659                  _cSoftwireDetfg
                    0x165a                  _cDispSetCurrUpdatefg
                    0x165b                  _cCraterWSUpdatefg
                    0x165c                  _cArcforceUpdatefg
                    0x165d                  _cCraterVtgUpdatefg
                    0x165e                  _cHotstartUpdatefg
                    0x165f                  _cInductanceUpdatefg
                    0x1660                  _cMigVtgUpdatefg
                    0x1661                  _cMIGWSUpdatefg
                    0x1662                  _cCurrFBUpdatefg
                    0x1663                  _cVtgFBUpdatefg
                    0x1664                  _cVRDSwitchfg
                    0x1666                  _inch_pwm
                    0x1668                  _iSlope
                    0x166a                  _iOffset
                    0x166c                  _iMMASlope
                    0x166e                  _iMMAOffset
                    0x1670                  _cCraterLatchfg
                    0x1671                  _cInchLatchfg
                    0x1672                  _cError4chkfg
                    0x1673                  _cGasAndWeldParalockfg
                    0x1674                  _cVoltoffMenuMode
                    0x1676                  _iTest1
                    0x1678                  _MIGCVSLOPE400
                    0x167a                  _iVRDSwitchcnt
                    0x167c                  _iModeSwitchcnt
                    0x167e                  _iVRD_Time
                    0x1680                  _cGaschkcntr
                    0x1682                  _iGascntr
                    0x1684                  _cGaschkfg
                    0x1685                  _cGasChkfg
                    0x1686                  _gaschkfg
                    0x1687                  _cBKeyLockfg
                    0x1688                  _iPIDcntrfg
                    0x168a                  _fGndRes
                    0x168e                  _fGndRes_WF
                    0x1692                  _iPIDcntr
                    0x1694                  _fSetCurrent
                    0x1698                  _fCraterWS
                    0x169c                  _fHotStart
                    0x16a0                  _fInductance
                    0x16a4                  _fArcForce
                    0x16a8                  _fCraterVtg
                    0x16ac                  _cVRD_fg
                    0x16ad                  _cVRDTimerSavefg
                    0x16ae                  _cRecordVRDONvtg
                    0x16af                  _cMotorTripfg
                    0x16b0                  _ivrdcnt
                    0x16b2                  _iPrevVRDTime
                    0x16b4                  _ivrdcnt1
                    0x16b6                  _iActualVRDvtgON
                    0x16b8                  _iSampleVRDvtgcnt
                    0x16ba                  _VRDTimecnt_1s
                    0x16bc                  _iMotorTripcnt_100ms
                    0x16be                  _iMotorTripChkcntr
                    0x16c0                  _cFlashCntr
                    0x16c2                  _count_3s
                    0x16c4                  _er4
                    0x16c6                  _er5
                    0x16c8                  _iTripcnt
                    0x16ca                  _iTRIPVTG1
                    0x16cc                  _iTRIPVTG2
                    0x16ce                  _iRemoteCurr
                    0x16d0                  _cFlashfg
                    0x16d1                  _NO_ERROR_CONNECTOR_fg
                    0x16d2                  _no_display_fg
                    0x16d3                  _cAKeyLockfg
                    0x16d4                  _cVRDMenufg
                    0x16d5                  _cEEPROMSavefg
                    0x16d6                  _keyreadfg
                    0x16d7                  _cPowerONfg
                    0x16d8                  _cFirstTimefg
                    0x16da                  _iVRDMenucnt
                    0x16dc                  _iPowerONcnt
                    0x16de                  _iModeSelcnt
                    0x16e0                  _mma_vrd_time
                    0x16e4                  _iVRDTimecnt
                    0x16e8                  _read_mma_vrd_time
                    0x16ec                  _iErr1
                    0x16ee                  _iErr2
                    0x16f0                  _cModeSelectDonefg
                    0x16f1                  _cEnterModelSelectionMenufg
                    0x16f2                  _cModel_Select
                    0x16f3                  _cMaxFBCurrCalibrationfg
                    0x16f4                  _cModelSelectfg
                    0x16f6                  _iModelcnt
                    0x16f8                  _Moderesult
                    0x16fa                  _iModelSelectBand
                    0x16fc                  _eedata1
                    0x16fe                  _ACT_CVOLTAGE_1
                    0x1700                  _AFtestcnt
                    0x1702                  _iWireFeeder_error
                    0x1704                  _mult_factor_1
                    0x1706                  _cEEPROMModelSavefg
                    0x1707                  _adctestreadfg
                    0x1708                  _cDonefg
                    0x1709                  _cVoltageoffsetfg
                    0x170a                  _eedata2
                    0x170c                  _eedata3
                    0x170e                  _eedata4
                    0x1710                  _eedata5
                    0x1712                  _eedata6
                    0x1714                  _eedata7
                    0x1716                  _iWS_Min_Count
                    0x1718                  _iWS_Max_Count
                    0x171a                  _iVTG_Min_Count
                    0x171c                  _iVTG_Max_Count
                    0x171e                  _iFinal_WS_Count
                    0x1720                  _iFinal_VTG_Count
                    0x1722                  _iAdccrateriref
                    0x1726                  _padccrateriref
                    0x172a                  _padccratervref
                    0x172e                  _iAdccratervref
                    0x1732                  _diff
                    0x1734                  _iCraterdisptime
                    0x1736                  _cCraterdispfg
                    0x1737                  _cMenucnt
                    0x1738                  _cVoltageoffsetmenu
                    0x1739                  _disp_data_arr
                    0x173e                  _mmat
                    0x1740                  _mdia
                    0x1742                  _melectrode
                    0x1744                  _mat
                    0x1746                  _dia
                    0x1748                  _gas
                    0x174a                  _tmat
                    0x174c                  _tdia
                    0x174e                  _tjoint
                    0x1750                  _pmat
                    0x1752                  _pdia
                    0x1754                  _pgas
                    0x1ffa                  _controlHistory

External Symbols in Data Memory (by name):

                    0x0966                  _ACT_CVOLTAGE
                    0x16fe                  _ACT_CVOLTAGE_1
                    0x151c                  _ADCARCFVresult
                    0x160a                  _ADCT1result
                    0x160c                  _ADCT2result
                    0x0c1a                  _AFcnt
                    0x1700                  _AFtestcnt
                    0x0c40                  _AFvtg
                    0x09c8                  _ALEN_pulsefreq
                    0x1528                  _ARCFORCEVOLTAGE
                    0x092c                  _ARCLFACTOR
                    0x0958                  _AVGBSCKVTG
                    0x0baa                  _AVGBVTG
                    0x0c4e                  _Act_EE_Addr
                    0x0b88                  _Adaptive_freq_pidf
                    0x0a22                  _Aweldon_detectf
                    0x082f                  _Aweldonf
                    0x0ba8                  _BCNT
                    0x0856                  _BVOLTAGE
                    0x139c                  _BVTGARR
                    0x0c7a                  _Basepowerconstant
                    0x0852                  _CURRENT
                    0x15ea                  _CUrrrent
                    0x091c                  _CVOLTAGE
                    0x161e                  _Channel
                    0x14b4                  _ChkForAnotherfg
                    0x0a42                  _DACREF
                    0x15a6                  _DAC_Ref
                    0x151a                  _DISPArcforcevtg
                    0x1612                  _DISPT1vtg
                    0x1614                  _DISPT2vtg
                    0x0b22                  _DISPamp
                    0x096c                  _DISPavgf
                    0x0b26                  _DISPerr
                    0x0b20                  _DISPfoot
                    0x0b24                  _DISPvtg
                    0x147a                  _Down_Step
                    0x1482                  _Downcurrent
                    0x1474                  _Downslope_cntr
                    0x0ba0                  _ECONSTANT
                    0x12e3                  _EEPROM_struct_mig
                    0x12e4                  _EEPROM_struct_pmig
                    0x12e5                  _EEPROM_struct_tig
                    0x0c4c                  _EE_Stat
                    0x0d38                  _ERROR_4_errorf
                    0x144e                  _Error_flag
                    0x0b36                  _FLTSCKvtg
                    0x0aec                  _FRQ_baseamp
                    0x0ae4                  _FRQ_bdaccount
                    0x0ae6                  _FRQ_newupstep
                    0x0ae0                  _FRQ_pdaccount
                    0x0ae8                  _FRQ_peakamp
                    0x0cb0                  _FRQ_sckscaled_val
                    0x0ae2                  _FRQ_sdaccount
                    0x0aea                  _FRQ_stepamp
                    0x0ade                  _FRQ_uppdaccount
                    0x0ca8                  _FRQbaseamp
                    0x0caa                  _FRQbasevtg
                    0x1588                  _FeedbackSetpoint
                    0x0948                  _Fltbvtg
                    0x0982                  _Fltbvtgcnt
                    0x0d46                  _G_crater_current
                    0x0d36                  _HS_errorf
                    0x1491                  _HeaderWrfg
                    0x0900                  _Hi_pulsefreq
                    0x15f4                  _IRcurr
                    0x1582                  _Kd
                    0x1580                  _Ki
                    0x136e                  _Kiterm1
                    0x136a                  _Kiterm2
                    0x157e                  _Kp
                    0x0904                  _Lo_pulsefreq
                    0x0a6e                  _MAHESH
                    0x0aa4                  _MAXFBMULTIPLIER
                    0x1678                  _MIGCVSLOPE400
                    0x0837                  _MIGweldon_detectf
                    0x085a                  _MVOLTAGE
                    0x0b4e                  _M_weldingonf
                    0x16f8                  _Moderesult
                    0x144d                  _Motor_OverLoad_errorf
                    0x16d1                  _NO_ERROR_CONNECTOR_fg
                    0x0b49                  _OCVON_command
                    0x0aac                  _OPEN_basetm
                    0x0aba                  _OPEN_bdaccount
                    0x0abe                  _OPEN_newdownstep
                    0x0abc                  _OPEN_newupstep
                    0x0ab6                  _OPEN_pdaccount
                    0x08f8                  _OPEN_pidoutput1
                    0x0ab0                  _OPEN_pulsefalltm
                    0x0aae                  _OPEN_pulserisetm
                    0x0aa8                  _OPEN_pulsetm
                    0x08f4                  _OPEN_scaled_val1
                    0x0ab8                  _OPEN_sdaccount
                    0x0ab2                  _OPEN_startpulsetm
                    0x0aaa                  _OPEN_steptm
                    0x0ab4                  _OPEN_uppdaccount
                    0x0d34                  _OV_errorf
                    0x0a54                  _PCURRENT
                    0x0cc4                  _PFREQ
                    0x0cc8                  _PFREQERR
                    0x0afe                  _PFREQ_baseamp
                    0x0af6                  _PFREQ_bdaccount
                    0x0af8                  _PFREQ_newupstep
                    0x0af2                  _PFREQ_pdaccount
                    0x0afa                  _PFREQ_peakamp
                    0x0cb2                  _PFREQ_sckscaled_val
                    0x0af4                  _PFREQ_sdaccount
                    0x0afc                  _PFREQ_stepamp
                    0x0af0                  _PFREQ_uppdaccount
                    0x0ac8                  _PID_basetm
                    0x0ad6                  _PID_bdaccount
                    0x0a30                  _PID_interval
                    0x0ada                  _PID_newdownstep
                    0x0ad8                  _PID_newupstep
                    0x0ad2                  _PID_pdaccount
                    0x0acc                  _PID_pulsefalltm
                    0x0aca                  _PID_pulserisetm
                    0x0ac4                  _PID_pulsetm
                    0x0ad4                  _PID_sdaccount
                    0x0ace                  _PID_startpulsetm
                    0x0ac6                  _PID_steptm
                    0x0ad0                  _PID_uppdaccount
                    0x0918                  _PULSEamp
                    0x0834                  _PULSEavgf
                    0x091a                  _PULSEvtg
                    0x0858                  _PVOLTAGE
                    0x15a4                  _PWM_Ref
                    0x0d44                  _P_crater_current
                    0x0c72                  _Peakpowerconstant
                    0x08d2                  _Prev_mperiod
                    0x0829                  _Prevkey
                    0x09de                  _Pvolterr
                    0x0bc8                  _RP_BVOLTAGE
                    0x0d2a                  _Recall_location
                    0x14d8                  _ReferenceReadfg
                    0x1586                  _ReferenceSetpoint
                    0x0c52                  _SAV_TBLPAG
                    0x095a                  _SCKBVOLTAGE
                    0x0956                  _SCKCNT
                    0x092a                  _SCKCURRENT
                    0x0b30                  _SCKVOLTAGE
                    0x0b28                  _SCKamp
                    0x096d                  _SCKavgf
                    0x0b2c                  _SCKerr
                    0x0b2e                  _SCKfoot
                    0x0b2a                  _SCKvtg
                    0x0ba6                  _SUMBVTGARR
                    0x0954                  _SUMSCKBVTGARR
                    0x0968                  _Shortcktf
                    0x0c76                  _Steppowerconstant
                    0x0d35                  _TH_errorf
                    0x1487                  _TORCH_SW
                    0x085c                  _TRIPVTG
                    0x0b4d                  _T_weldingonf
                    0x0c06                  _Tbasevoltage
                    0x0c02                  _Tbasevoltage1
                    0x0c04                  _Tbasevoltage2
                    0x1440                  _Testfg
                    0x1442                  _Ti
                    0x0d80                  _Time_ms
                    0x1622                  _Total_AvgCurr
                    0x1602                  _Total_DISPT1result
                    0x1606                  _Total_DISPT2result
                    0x15fa                  _Total_SCKE1result
                    0x15fe                  _Total_SCKE2result
                    0x0c6e                  _Totalpulsepower
                    0x1432                  _Ts
                    0x1584                  _Tsampling
                    0x111a                  _TypeDP
                    0x111b                  _TypeU
                    0x1476                  _UP_Step
                    0x0d33                  _UV_errorf
                    0x147e                  _Upcurrent
                    0x1472                  _Upslope_cntr
                    0x0854                  _VOLTAGE
                    0x16ba                  _VRDTimecnt_1s
                    0x0a25                  _Vweldon
                    0x0a21                  _Vweldon_detectf
                    0x14c5                  _WfEditfg
                    0x144c                  _WireFeeder_errorf
                    0x0800                  _abcCoefficient
                    0x0c82                  _actpcount
                    0x0c7e                  _actpvtg
                    0x098c                  _actual_fltbvtg
                    0x09ea                  _adaptivekp
                    0x161c                  _adc16
                    0x0835                  _adcreadf
                    0x0950                  _adcreadoverf
                    0x1707                  _adctestreadfg
                    0x0951                  _addafref
                    0x0a58                  _addonbase
                    0x0a5a                  _addonbase1
                    0x09b6                  _addrippleamp
                    0x0922                  _adel
                    0x0b9c                  _adtemp
                    0x098a                  _af_bdaccount
                    0x0986                  _afbcurrent
                    0x0b44                  _ak47
                    0x0c54                  _aks
                    0x14c1                  _analogFramRxfg
                    0x0828                  _ans
                    0x09f8                  _ans11
                    0x0d50                  _arc_on_reset_count
                    0x0adc                  _arcforce_amp
                    0x094e                  _arcforceonf
                    0x12e8                  _arcontime
                    0x1311                  _arr
                    0x0a76                  _arrptr
                    0x0984                  _avg_fltbvtg
                    0x0cea                  _avgmpulsevtg
                    0x0ce6                  _avgpeakvtg
                    0x0ca2                  _avgpulsevtg
                    0x09be                  _avgtempvtg
                    0x0b00                  _base_amp_twin_pulse
                    0x0b0e                  _base_ramp_down_flag
                    0x08a2                  _baseamp
                    0x0b90                  _baseavgcnt
                    0x0a80                  _basecurcnt
                    0x08ad                  _basef
                    0x0c88                  _baseoncnt
                    0x0a15                  _baseonf
                    0x0c8b                  _baserefonf
                    0x0a82                  _basetime
                    0x0b62                  _basetm
                    0x0cb8                  _basetmfactor
                    0x0a62                  _baseunit
                    0x0c98                  _basevoltagecnt
                    0x0cc0                  _basevtgpart
                    0x0896                  _bdaccount
                    0x0bca                  _bdaccount_rp
                    0x0924                  _bdel
                    0x15cb                  _c4Tstatus
                    0x16d3                  _cAKeyLockfg
                    0x15ca                  _cActualWireSpeedfg
                    0x14ca                  _cAnRemoteFrameArr
                    0x1517                  _cAntistickfg
                    0x1516                  _cArcForceTimefg
                    0x14f3                  _cArcOnfoundfg
                    0x165c                  _cArcforceUpdatefg
                    0x1514                  _cArcforcefg
                    0x1687                  _cBKeyLockfg
                    0x14ae                  _cCableChkCntr
                    0x14ad                  _cCableChkfg
                    0x14af                  _cCableErrorfg
                    0x1670                  _cCraterLatchfg
                    0x165d                  _cCraterVtgUpdatefg
                    0x165b                  _cCraterWSUpdatefg
                    0x1736                  _cCraterdispfg
                    0x15cc                  _cCreepDetectafterPreflowfg
                    0x15c6                  _cCreepEndfg
                    0x15d0                  _cCreepKifg
                    0x15dc                  _cCreepLatchfg
                    0x1533                  _cCreepSpeedDowncntfg
                    0x1662                  _cCurrFBUpdatefg
                    0x1658                  _cCursorPosition
                    0x15e4                  _cDacoutfg
                    0x1569                  _cDebounce2
                    0x1616                  _cDispFBcurrfg
                    0x1513                  _cDispFBvtgfg
                    0x165a                  _cDispSetCurrUpdatefg
                    0x152f                  _cDispUpdatefg
                    0x1708                  _cDonefg
                    0x1706                  _cEEPROMModelSavefg
                    0x16d5                  _cEEPROMSavefg
                    0x132d                  _cEditfg
                    0x15f0                  _cEnDCurrUpdatefg
                    0x14ea                  _cEncupdatefg
                    0x1656                  _cEndPulseCnt
                    0x1655                  _cEndPulsefg
                    0x16f1                  _cEnterModelSelectionMenufg
                    0x1672                  _cError4chkfg
                    0x14b5                  _cErrorNo
                    0x14b7                  _cFalshMsgfg
                    0x1518                  _cFastUpdateFBvtg
                    0x16d8                  _cFirstTimefg
                    0x14b6                  _cFlashCnt
                    0x16c0                  _cFlashCntr
                    0x16d0                  _cFlashfg
                    0x15ae                  _cForcefullyOFFOCVfg
                    0x1654                  _cFrameSendfg
                    0x14ec                  _cGASMenuMode
                    0x15ac                  _cGaSMenufg
                    0x1673                  _cGasAndWeldParalockfg
                    0x14d5                  _cGasChkMenufg
                    0x1685                  _cGasChkfg
                    0x14eb                  _cGaschkDowncntfg
                    0x1680                  _cGaschkcntr
                    0x1684                  _cGaschkfg
                    0x1515                  _cHotfg
                    0x165e                  _cHotstartUpdatefg
                    0x1671                  _cInchLatchfg
                    0x165f                  _cInductanceUpdatefg
                    0x164f                  _cKeychangefg
                    0x164a                  _cLoadFreqfg
                    0x164e                  _cLoadReffg
                    0x15af                  _cLock4TModefg
                    0x15e5                  _cLockDACreffg
                    0x14e6                  _cMIGMenuMode
                    0x14e7                  _cMIGMenuOnfg
                    0x15ad                  _cMIGMenufg
                    0x14d4                  _cMIGMenumodelockfg
                    0x15d1                  _cMIGParaMenufg
                    0x1661                  _cMIGWSUpdatefg
                    0x1570                  _cMIGWeldStartfg
                    0x14ee                  _cMMAMenuMode
                    0x1512                  _cMMA_TIG_setcurrentfg
                    0x14ed                  _cMMAmenumodelockfg
                    0x14ef                  _cMMAparaupdatefg
                    0x1657                  _cMainScreenfg
                    0x16f3                  _cMaxFBCurrCalibrationfg
                    0x1737                  _cMenucnt
                    0x1562                  _cMigDACref
                    0x1660                  _cMigVtgUpdatefg
                    0x1563                  _cMigWeldparaupdatefg
                    0x1530                  _cMig_arcdetectfg
                    0x16f0                  _cModeSelectDonefg
                    0x16f4                  _cModelSelectfg
                    0x16f2                  _cModel_Select
                    0x15d2                  _cMotorStopForENDPulsefg
                    0x15cd                  _cMotorStopfg
                    0x16af                  _cMotorTripfg
                    0x1532                  _cMotorfg
                    0x14b0                  _cNofbVoltCnt
                    0x14b8                  _cOneSecfg
                    0x1636                  _cPIDtriggerfg
                    0x15aa                  _cPWMLockfg
                    0x14c4                  _cPWstarblinkcnt
                    0x0d95                  _cPonCntr
                    0x16d7                  _cPowerONfg
                    0x1634                  _cPulseCnt
                    0x16ae                  _cRecordVRDONvtg
                    0x14f2                  _cRemoteCalfg
                    0x14f8                  _cRemoteDetectedfg
                    0x15f1                  _cRemoteEnDCurrUpdatefg
                    0x14f4                  _cResetMenufg
                    0x152e                  _cShortCktfg
                    0x14a6                  _cSign1
                    0x14a7                  _cSign2
                    0x14a8                  _cSign3
                    0x1625                  _cSoftDonefg
                    0x1643                  _cSoftStartUSecfg
                    0x1628                  _cSoftStrCnt
                    0x1644                  _cSoftStrTimefg
                    0x1624                  _cSoftStrfg
                    0x1659                  _cSoftwireDetfg
                    0x1635                  _cStartCCReffg
                    0x14d6                  _cStartGasChkcntfg
                    0x1633                  _cStartPulsefg
                    0x1564                  _cSwitchPressfg
                    0x1565                  _cSwitchPressfg1
                    0x1566                  _cSwitchPressfg2
                    0x1567                  _cSwitchPressfg3
                    0x1568                  _cSwitchPressfg4
                    0x14e8                  _cTIGMenuMode
                    0x14e9                  _cTIGMenuOnfg
                    0x14d7                  _cTIGMenumodelockfg
                    0x15ce                  _cTestMotorStopfg
                    0x15e6                  _cTestVtgLockfg
                    0x15ab                  _cTestWSLockfg
                    0x1632                  _cTestfg
                    0x1637                  _cTorchPressFoundfg
                    0x15cf                  _cTorchStatus
                    0x15c8                  _cUpdate2TModefg
                    0x15c7                  _cUpdate4TModefg
                    0x15c9                  _cUpdateModefg
                    0x16d4                  _cVRDMenufg
                    0x1664                  _cVRDSwitchfg
                    0x16ad                  _cVRDTimerSavefg
                    0x16ac                  _cVRD_fg
                    0x1709                  _cVoltageoffsetfg
                    0x1738                  _cVoltageoffsetmenu
                    0x1674                  _cVoltoffMenuMode
                    0x1663                  _cVtgFBUpdatefg
                    0x1626                  _cWaitToStopMtrfg
                    0x1642                  _cWeldStartfg
                    0x1617                  _cWeldondetectfg
                    0x1618                  _cWeldonfg
                    0x0b46                  _changestatusf
                    0x0d9a                  _chkLongkeyPressfg
                    0x0a74                  _chksum
                    0x0908                  _circular_arr
                    0x0914                  _circular_cnt
                    0x0c13                  _clearlcdf
                    0x1522                  _cnt1sec
                    0x152c                  _cnt1sec_tig
                    0x1520                  _cnt200ms
                    0x152a                  _cnt200ms_tig
                    0x0c1e                  _cntsecond
                    0x145c                  _cntsecond_er4
                    0x0825                  _col
                    0x0d37                  _comm_errorf
                    0x12df                  _commandu
                    0x0d40                  _communication_time_out
                    0x0940                  _const_arc_strike_pdaccount
                    0x093e                  _constpeakamp
                    0x1ffa                  _controlHistory
                    0x0a40                  _count4_1ms
                    0x0a2a                  _count_100ms
                    0x0860                  _count_1ms
                    0x0b19                  _count_1ms_ext
                    0x0a68                  _count_1sec
                    0x0866                  _count_200ms
                    0x0862                  _count_20ms
                    0x16c2                  _count_3s
                    0x0864                  _count_500ms
                    0x086e                  _count_500ms1
                    0x0870                  _count_500ms2
                    0x14e2                  _count_gas_1sec
                    0x14de                  _count_gaschk_1ms
                    0x0962                  _count_tx2
                    0x0960                  _count_tx2_1ms
                    0x0942                  _count_weldonms
                    0x0868                  _cout_100us
                    0x0c10                  _crateron
                    0x0c0e                  _cratersetup
                    0x0bf6                  _current1
                    0x0bf8                  _current2
                    0x0b47                  _currentchangef
                    0x0d8a                  _currerrf
                    0x086c                  _curwirespeed
                    0x0c24                  _cvoffsetref
                    0x0a1f                  _cvrefon
                    0x1486                  _cyclestart
                    0x145a                  _dVal_press0
                    0x1458                  _dVal_press1
                    0x0d8e                  _dVal_torch0
                    0x0d90                  _dVal_torch1
                    0x0da2                  _dValm_torch0
                    0x0da4                  _dValm_torch1
                    0x085e                  _daccount
                    0x0b70                  _decaycnt
                    0x0b74                  _decaycount
                    0x0a26                  _decaycurrent
                    0x0b68                  _decayslope
                    0x0944                  _delarcon11
                    0x1746                  _dia
                    0x1732                  _diff
                    0x0c56                  _diffpeakvtg
                    0x080f                  _disdigit
                    0x1739                  _disp_data_arr
                    0x093c                  _disp_kiterm
                    0x0b3a                  _disp_newbaseamp
                    0x0bea                  _disparclen
                    0x0bb4                  _dispautocurrent
                    0x0bb6                  _dispautothickness
                    0x13a4                  _dispautovoltage
                    0x0ca4                  _dispavgpulsevtg
                    0x0b42                  _displedptr1
                    0x0b43                  _displedptr2
                    0x0c3c                  _dispnum1
                    0x0c3e                  _dispnum2
                    0x0b64                  _disptemp
                    0x0b66                  _disptemp1
                    0x0a11                  _dispwirespeed
                    0x130b                  _diswin1
                    0x130e                  _diswin2
                    0x0c42                  _don
                    0x0c46                  _donmax
                    0x0c44                  _donmin
                    0x0b8e                  _downcnt
                    0x0d8c                  _downslopef
                    0x0a04                  _downstep
                    0x0a1b                  _dummypulsecycle
                    0x0d87                  _dummytigtorch
                    0x0c0a                  _dummytorch
                    0x0bc6                  _eedata
                    0x16fc                  _eedata1
                    0x170a                  _eedata2
                    0x170c                  _eedata3
                    0x170e                  _eedata4
                    0x1710                  _eedata5
                    0x1712                  _eedata6
                    0x1714                  _eedata7
                    0x0b45                  _emg_sendf
                    0x081f                  _encod1
                    0x0820                  _encod2
                    0x0821                  _encod3
                    0x094d                  _endbmeasuref
                    0x1450                  _er1
                    0x1452                  _er2
                    0x1454                  _er3
                    0x16c4                  _er4
                    0x16c6                  _er5
                    0x1456                  _err11_delay_counter
                    0x144f                  _err_dispfg
                    0x09fa                  _errdaccount
                    0x158c                  _error1
                    0x144a                  _error4_flag
                    0x144b                  _error_4_check4t
                    0x1592                  _error_neg
                    0x158e                  _error_new
                    0x1590                  _error_old
                    0x09d0                  _error_tx_flag
                    0x09f0                  _errorrate
                    0x12e0                  _erroru
                    0x0db0                  _expon_lookup
                    0x0b17                  _ext1ans
                    0x0b18                  _ext2ans
                    0x0b12                  _extint1status1
                    0x0b14                  _extint1status2
                    0x0b13                  _extint2status1
                    0x0b15                  _extint2status2
                    0x14c6                  _fAcc
                    0x16a4                  _fArcForce
                    0x15d8                  _fCalKi
                    0x15d4                  _fCalKp
                    0x16a8                  _fCraterVtg
                    0x1698                  _fCraterWS
                    0x1438                  _fFd
                    0x168a                  _fGndRes
                    0x168e                  _fGndRes_WF
                    0x169c                  _fHotStart
                    0x16a0                  _fInductance
                    0x1434                  _fKi
                    0x150e                  _fOffset
                    0x14c8                  _fPrevError
                    0x0da6                  _fRef_pwm_new
                    0x0daa                  _fRef_pwm_new_result
                    0x1506                  _fRemoteCheckCurr
                    0x150a                  _fRemoteCurr
                    0x09d2                  _fSampling_freq
                    0x1694                  _fSetCurrent
                    0x0c11                  _fastexit
                    0x0cac                  _fbavgpulsevtg
                    0x148a                  _first_digits
                    0x0811                  _firstpulse1
                    0x0816                  _firstpulse2
                    0x081a                  _firstpulse3
                    0x096b                  _firstpulsef
                    0x0b1f                  _firsttimef
                    0x13a8                  _flt
                    0x0cdc                  _flttmpeakvtg
                    0x1110                  _fooPID
                    0x0d6a                  _foot_1_normal_0
                    0x146e                  _footref_I
                    0x0b3c                  _footref_precent
                    0x148d                  _fourth_digits
                    0x0a7a                  _frepidf
                    0x0bec                  _ftemp
                    0x0c22                  _fttrefvolt
                    0x0bf0                  _fwirespeed
                    0x1748                  _gas
                    0x14a9                  _gasChkfg
                    0x1686                  _gaschkfg
                    0x0826                  _glcd_flag
                    0x139a                  _high_base_amp
                    0x0846                  _i
                    0x1620                  _iACT_CURRENT
                    0x14fc                  _iActualRemotecurr
                    0x16b6                  _iActualVRDvtgON
                    0x15b6                  _iActualWS
                    0x15b4                  _iActualWireSpeedcnt
                    0x1722                  _iAdccrateriref
                    0x172e                  _iAdccratervref
                    0x1526                  _iArcforceVtgcnt
                    0x1524                  _iArcforcecnt
                    0x148e                  _iCntChk
                    0x15e8                  _iConvertedDACRef
                    0x1734                  _iCraterdisptime
                    0x15ec                  _iCreepSpeedDowncnt
                    0x15b2                  _iCreepSpeedcnt
                    0x1538                  _iDacCnt
                    0x156a                  _iDebounce1
                    0x1630                  _iDummyvoltageref
                    0x1648                  _iEndPulseCurr
                    0x16ec                  _iErr1
                    0x16ee                  _iErr2
                    0x157c                  _iFBMotorvtg
                    0x1572                  _iFBmotor_finalvtg
                    0x157a                  _iFBmvtg
                    0x1720                  _iFinal_VTG_Count
                    0x171e                  _iFinal_WS_Count
                    0x14ba                  _iFlashCntr
                    0x14dc                  _iGAScnt
                    0x14da                  _iGasChkMenuModecnt
                    0x154e                  _iGasCntr
                    0x1682                  _iGascntr
                    0x1498                  _iHeaderdly
                    0x151e                  _iHotstartcount
                    0x164c                  _iLoadFreqCntr
                    0x1650                  _iLoadRefCntr
                    0x15a8                  _iMIGParaMenucnt
                    0x166e                  _iMMAOffset
                    0x166c                  _iMMASlope
                    0x1640                  _iMaxWSLimit
                    0x14e0                  _iMenuModecnt
                    0x1534                  _iMigOffset
                    0x1536                  _iMigSlope
                    0x1550                  _iMigWeldPara
                    0x1554                  _iMigWeldPara1
                    0x1556                  _iMigWeldPara2
                    0x1558                  _iMigWeldPara3
                    0x155a                  _iMigWeldPara4
                    0x155c                  _iMigWeldPara5
                    0x155e                  _iMigWeldPara6
                    0x16de                  _iModeSelcnt
                    0x167c                  _iModeSwitchcnt
                    0x16fa                  _iModelSelectBand
                    0x16f6                  _iModelcnt
                    0x156e                  _iMotorPIDcnt
                    0x16be                  _iMotorTripChkcntr
                    0x16bc                  _iMotorTripcnt_100ms
                    0x166a                  _iOffset
                    0x1692                  _iPIDcntr
                    0x1688                  _iPIDcntrfg
                    0x15b0                  _iPWMClosecnt
                    0x162e                  _iPidCal
                    0x16dc                  _iPowerONcnt
                    0x14a4                  _iPrevDacCnt
                    0x1502                  _iPrevDisplaySetcurrent
                    0x1576                  _iPrevMotorvtg
                    0x162c                  _iPrevPidOutput
                    0x1652                  _iPrevRef
                    0x1500                  _iPrevSetcurrent
                    0x16b2                  _iPrevVRDTime
                    0x15f2                  _iPrevWireSpeed
                    0x14c2                  _iRXCntr
                    0x1574                  _iRefmvtg
                    0x1504                  _iRemoteCheckcnt
                    0x16ce                  _iRemoteCurr
                    0x14fe                  _iRemoteCurrcnt
                    0x14fa                  _iRemotecnt
                    0x14e4                  _iResetcnt1
                    0x1578                  _iResult_motorvtg
                    0x16b8                  _iSampleVRDvtgcnt
                    0x1496                  _iSecCntr
                    0x163a                  _iSimpleCnt
                    0x1668                  _iSlope
                    0x15ee                  _iSlowIncrementWireSpeed
                    0x163e                  _iSoftStrTimecnt
                    0x1646                  _iStartCurr
                    0x1638                  _iStartSetVoltCnt
                    0x163c                  _iStepforStartVoltRef
                    0x16ca                  _iTRIPVTG1
                    0x16cc                  _iTRIPVTG2
                    0x1552                  _iTemp
                    0x149c                  _iTest
                    0x1676                  _iTest1
                    0x15b8                  _iTest2
                    0x156c                  _iTestcntr
                    0x149e                  _iTestpeak1
                    0x14a0                  _iTestpeak2
                    0x14a2                  _iTestpeak3
                    0x14f6                  _iTimeResetSwitchcnt
                    0x160e                  _iTrip1vtg
                    0x1610                  _iTrip2vtg
                    0x16c8                  _iTripcnt
                    0x16da                  _iVRDMenucnt
                    0x167a                  _iVRDSwitchcnt
                    0x16e4                  _iVRDTimecnt
                    0x167e                  _iVRD_Time
                    0x171c                  _iVTG_Max_Count
                    0x171a                  _iVTG_Min_Count
                    0x15f8                  _iVoltage
                    0x1718                  _iWS_Max_Count
                    0x1716                  _iWS_Min_Count
                    0x162a                  _iWaitToStopMtrCnt
                    0x14b2                  _iWeldcount
                    0x161a                  _iWeldoncnt
                    0x1702                  _iWireFeeder_error
                    0x15f6                  _iWireSpeed
                    0x095c                  _id
                    0x0b92                  _idecaycount
                    0x1560                  _igascntr
                    0x0a73                  _iii
                    0x080e                  _ijk
                    0x1666                  _inch_pwm
                    0x1594                  _integral_new
                    0x0cfc                  _integral_old
                    0x096f                  _intkd
                    0x132c                  _intki
                    0x096e                  _intkp
                    0x1494                  _invalid_recall_fg
                    0x16b0                  _ivrdcnt
                    0x16b4                  _ivrdcnt1
                    0x0848                  _j
                    0x095e                  _jd
                    0x084a                  _k
                    0x0806                  _kCoeffs
                    0x1356                  _kd1_prev
                    0x133e                  _kd2_prev
                    0x137a                  _kdgamma1
                    0x1366                  _kdgamma2
                    0x0827                  _key
                    0x0b89                  _keychange1
                    0x0b8a                  _keychange2
                    0x0831                  _keycolumn
                    0x14f0                  _keyfoundfg
                    0x0832                  _keypad
                    0x16d6                  _keyreadfg
                    0x0830                  _keyrow
                    0x134e                  _ki1_prev
                    0x1336                  _ki2_prev
                    0x1376                  _kigamma1
                    0x1362                  _kigamma2
                    0x1346                  _kp1_prev
                    0x132e                  _kp2_prev
                    0x1372                  _kpgamma1
                    0x135e                  _kpgamma2
                    0x0d26                  _lcd_saverecall_ptr
                    0x0d5c                  _lcd_update_password
                    0x0c15                  _lcdmigpointer
                    0x0952                  _lcdpage
                    0x0c17                  _lcdscan_flag
                    0x0b6c                  _linearcnt
                    0x1490                  _load_data_into_usb_fg
                    0x0920                  _loadbaseamp
                    0x091e                  _loadbasetime
                    0x0a72                  _loadpara1
                    0x0da0                  _longKeyPressfg
                    0x0a64                  _loopcount
                    0x0d3e                  _looperrorvtg
                    0x0a66                  _loopinterval
                    0x1398                  _low_base_amp
                    0x0a00                  _lowdaccount
                    0x1744                  _mat
                    0x09c0                  _mavgtempvtg
                    0x1448                  _max_Gws
                    0x1446                  _max_Pws
                    0x0b04                  _max_base_amp
                    0x0b08                  _max_freq
                    0x0c4a                  _max_lcd_cnt
                    0x0a46                  _maxbase
                    0x0a3c                  _maxbaseamp
                    0x0872                  _maxbasetime
                    0x09e6                  _maxpulseduty
                    0x0a48                  _maxpulsedutyterm
                    0x08e8                  _maxpulsefreq
                    0x08da                  _maxrefbtime
                    0x08ae                  _mbase1f
                    0x08af                  _mbase2f
                    0x1740                  _mdia
                    0x1742                  _melectrode
                    0x0c19                  _memoryzone
                    0x08d4                  _mfreq
                    0x0a2e                  _micromulti
                    0x0a70                  _microsec
                    0x09fe                  _middaccount
                    0x1548                  _mig_Ka
                    0x154a                  _mig_Kb
                    0x154c                  _mig_Kc
                    0x1546                  _mig_Kd
                    0x1544                  _mig_Ki
                    0x1542                  _mig_Kp
                    0x153c                  _mig_burnback
                    0x1540                  _mig_creepspeedrate
                    0x15e0                  _mig_creepspeedtime
                    0x153e                  _mig_postflow
                    0x153a                  _mig_preflow
                    0x0cee                  _migdaccount
                    0x0b50                  _mili1_100
                    0x0b02                  _min_base_amp
                    0x0b06                  _min_freq
                    0x0a44                  _minbase
                    0x0a3a                  _minbaseamp
                    0x0876                  _minbasetime
                    0x09b2                  _minoutmax
                    0x09e8                  _minpulseduty
                    0x0a4a                  _minpulsedutyterm
                    0x08ea                  _minpulsefreq
                    0x08dc                  _minrefbtime
                    0x0814                  _minus111
                    0x0818                  _minus222
                    0x081c                  _minus333
                    0x0b58                  _minuscount1
                    0x0b56                  _minuspara1
                    0x0b84                  _mkf
                    0x0d30                  _mma_tig_error_latch
                    0x16e0                  _mma_vrd_time
                    0x173e                  _mmat
                    0x08b7                  _modechangef
                    0x0d3b                  _motor_encoder_errorf
                    0x15c2                  _motor_integral_acc
                    0x08b0                  _mpeak1f
                    0x08b1                  _mpeak2f
                    0x08d0                  _mperiod
                    0x0cec                  _mpulsevtg
                    0x1404                  _mpulsevtgarr
                    0x0ce8                  _mpulsevtgcnt
                    0x1470                  _msec10_cntr
                    0x0c9c                  _msrbaseoncnt
                    0x0ca0                  _msrbasevtg
                    0x0ca6                  _msrbpvtg
                    0x0c9a                  _msrpulseoncnt
                    0x0c9e                  _msrpulsevtg
                    0x0cf8                  _msrpulsevtgf
                    0x1430                  _mult_factor
                    0x1704                  _mult_factor_1
                    0x0815                  _new1
                    0x0819                  _new2
                    0x081d                  _new3
                    0x08c0                  _newbasetime
                    0x0b8c                  _newdownstep
                    0x08d6                  _newpeakamp
                    0x0c62                  _newpidstepbasetime
                    0x08e6                  _newpulsebase
                    0x0978                  _newpulseduty
                    0x09ec                  _newpulsefreq
                    0x08c4                  _newsteptime
                    0x0a06                  _newupstep
                    0x16d2                  _no_display_fg
                    0x084c                  _num1
                    0x09f4                  _num11
                    0x09f6                  _num12
                    0x084e                  _num2
                    0x14ab                  _ocvonfg
                    0x0822                  _old1
                    0x0823                  _old2
                    0x0824                  _old3
                    0x0a23                  _openloopf
                    0x082e                  _openloopnew
                    0x0b41                  _oper
                    0x1488                  _oper_tig
                    0x15a0                  _outmax
                    0x15a2                  _outmin
                    0x0a38                  _outputpulsebase
                    0x0d3a                  _over_curr_error_flag
                    0x1726                  _padccrateriref
                    0x172a                  _padccratervref
                    0x0a56                  _padccur
                    0x0a0e                  _paraA
                    0x0a0f                  _paraB
                    0x0a10                  _paraC
                    0x1190                  _para_tempu
                    0x1120                  _parau
                    0x0bbe                  _parcbasevtg
                    0x0bb8                  _parcforce
                    0x0bbc                  _parclength
                    0x0d5a                  _passwod_set_flag
                    0x0d58                  _password
                    0x0d5b                  _password_protection_enabled
                    0x0d56                  _password_set_count
                    0x0886                  _pdaccount
                    0x1752                  _pdia
                    0x089a                  _peakamp
                    0x08ab                  _peakf
                    0x0a24                  _peakonf
                    0x08b8                  _peaktime
                    0x0cb4                  _peaktmfactor
                    0x0a84                  _peakvtg
                    0x13fc                  _peakvtgarr
                    0x0ce4                  _peakvtgarrcnt
                    0x0a86                  _peakvtgcnt
                    0x0cbc                  _peakvtgpart
                    0x1754                  _pgas
                    0x1200                  _pidParams1
                    0x1264                  _pidParams2
                    0x098e                  _pidfactor
                    0x0bd0                  _piditeration
                    0x0bd2                  _piditerationcnt
                    0x0938                  _pidkd
                    0x0934                  _pidki
                    0x0930                  _pidkp
                    0x0a92                  _pidmaxbaseamp
                    0x0a8e                  _pidminbaseamp
                    0x1598                  _pidoutmax
                    0x159c                  _pidoutmin
                    0x15be                  _pidoutput
                    0x142e                  _pidvalue
                    0x0bce                  _piii
                    0x0b16                  _pincheck
                    0x0c5e                  _pinductance
                    0x0a13                  _ploopcnt
                    0x0812                  _plus111
                    0x0817                  _plus222
                    0x081b                  _plus333
                    0x0b54                  _pluscount1
                    0x0b52                  _pluspara1
                    0x1750                  _pmat
                    0x0d54                  _pmig_auto0_man1
                    0x0a60                  _pmigsetvoltage
                    0x0a5e                  _pmigsetwirespeed
                    0x0c18                  _point
                    0x148f                  _pon_usb_fg
                    0x12ee                  _pontime
                    0x0844                  _power_delay
                    0x0cf9                  _power_on_flag
                    0x0b4b                  _power_on_in_mma
                    0x0b4c                  _power_on_in_tig
                    0x0a7e                  _ppmigsetvoltage
                    0x0a7c                  _ppmigsetwirespeed
                    0x0a3e                  _presetcurrent
                    0x0d39                  _pressure_error_flag
                    0x0a52                  _presultcur
                    0x09c6                  _presumdaccount
                    0x0b38                  _prevFLTSCKvtg
                    0x0946                  _prevFltbvtg
                    0x0d5d                  _prev_2t_4t_mode
                    0x0b4a                  _prev_OCVON_command
                    0x0d2e                  _prev_Recall_location
                    0x145e                  _prev_arcontimehr
                    0x1460                  _prev_arcontimemin
                    0x13dc                  _prev_eeprom_mig_struct
                    0x13fa                  _prev_eeprom_pmig_struct
                    0x13de                  _prev_eeprom_tig_struct
                    0x0d6c                  _prev_foot_1_normal_0
                    0x0c38                  _prev_pcreepspeedrate
                    0x0d55                  _prev_pmig_auto0_man1
                    0x0d2c                  _prev_save_location
                    0x0d70                  _prev_tig_pulse1_normal0
                    0x0cae                  _prevavgpulsevtg
                    0x0c28                  _prevburnback
                    0x0c2c                  _prevcratervoltage
                    0x13a6                  _prevcreepspeedrate
                    0x0c48                  _prevdon
                    0x0c2e                  _prevgcraterspeed
                    0x0d48                  _prevgcreepspeedrate
                    0x0d4a                  _prevhr
                    0x0d4c                  _prevmin
                    0x0c2a                  _prevpostflow
                    0x0c26                  _prevpreflow
                    0x0c0b                  _prevpscyclestatus
                    0x0a1a                  _prevpulsecycle
                    0x0c30                  _prevpulseweldmode
                    0x0d4e                  _prevsec
                    0x0d60                  _prevtdownslopetime
                    0x0d62                  _prevtendcurrent
                    0x0ce0                  _prevtmpeakvtg
                    0x0d64                  _prevtpostflowtime
                    0x0d5e                  _prevtpreflow
                    0x1466                  _prevtstartcurrent
                    0x1468                  _prevtupslopetime
                    0x0c34                  _prevtwinpulseduty
                    0x0c32                  _prevtwinpulsefreq
                    0x0c36                  _prevtwinpulseratio
                    0x0c0c                  _prevwfcyclestatus
                    0x086a                  _prevwirespeed
                    0x0a2c                  _prevwirespeed1
                    0x0be8                  _program_number
                    0x0bcc                  _prowno
                    0x0a34                  _psetcurrent
                    0x0a36                  _psetvoltage
                    0x12de                  _psstatusu
                    0x12c8                  _pstowfstru
                    0x0bae                  _ptigsetcurrent
                    0x0b78                  _ptosmslope
                    0x09fc                  _ptosslope
                    0x087a                  _pulsebase
                    0x1380                  _pulsebase_trial
                    0x0a9c                  _pulsecurfactor
                    0x0b40                  _pulsecycle
                    0x0a18                  _pulsecyclestrt
                    0x08a6                  _pulseduty
                    0x0b9a                  _pulsefalltime
                    0x0b5c                  _pulsefalltm
                    0x08fc                  _pulsefreq
                    0x0aa0                  _pulsefreqfactor
                    0x0c86                  _pulseoncnt
                    0x0916                  _pulseontime
                    0x0bd4                  _pulsepararr
                    0x087e                  _pulsepeak
                    0x0c8a                  _pulserefonf
                    0x0b98                  _pulserisetime
                    0x0b5a                  _pulserisetm
                    0x0990                  _pulsestartcnt
                    0x0882                  _pulsestep
                    0x0a20                  _pulsestrtf
                    0x0b5e                  _pulsetm
                    0x0a98                  _pulsetmfactor
                    0x0c96                  _pulsevoltagecnt
                    0x0838                  _pulseweldonf
                    0x0a12                  _pweldonf
                    0x146a                  _pwmresult
                    0x0d84                  _read_foot_1_normal_0
                    0x13cc                  _read_gburnback
                    0x13c8                  _read_gcratercurrent
                    0x13da                  _read_gcratervoltag
                    0x13ca                  _read_gcratervoltage
                    0x15de                  _read_gcreepspeedtime
                    0x13d4                  _read_gdiameter
                    0x13d6                  _read_ggas
                    0x13d2                  _read_gmaterial
                    0x13d0                  _read_gpostflow
                    0x13c4                  _read_gpreflow
                    0x0c5a                  _read_gsetcurrent
                    0x13c6                  _read_gsetvoltage
                    0x13ce                  _read_gsetwspeed
                    0x0c60                  _read_gthickness
                    0x15e2                  _read_iOffset
                    0x13d8                  _read_inductance
                    0x13ae                  _read_marcforce
                    0x13b2                  _read_melectrodesize
                    0x13b4                  _read_melectrotype
                    0x13aa                  _read_mhotstart
                    0x16e8                  _read_mma_vrd_time
                    0x13b0                  _read_mmaterial
                    0x13ac                  _read_msetcurrent
                    0x13f0                  _read_parclength
                    0x13ea                  _read_pburnback
                    0x13e6                  _read_pcratercurrent
                    0x13e8                  _read_pcratervoltage
                    0x0c66                  _read_pcreepspeedrate
                    0x13f6                  _read_pdiameter
                    0x13f8                  _read_pgas
                    0x13f4                  _read_pmaterial
                    0x0d52                  _read_pmig_auto0_man1
                    0x13f2                  _read_ppostflow
                    0x13e0                  _read_ppreflow
                    0x0c6c                  _read_ppulseweldmode
                    0x13e2                  _read_psetcurrent
                    0x13e4                  _read_psetvoltage
                    0x13ec                  _read_psetwspeed
                    0x13ee                  _read_pthickness
                    0x0c68                  _read_ptwinpulseduty
                    0x0c6a                  _read_ptwinpulsefreq
                    0x0c64                  _read_ptwinpulseratio
                    0x13be                  _read_tendcurrent
                    0x0d7c                  _read_tig_twot_fourt
                    0x0d76                  _read_tigdownslopetime
                    0x0d78                  _read_tigmodeendcurrent
                    0x0d7a                  _read_tigmodepostflow
                    0x0d66                  _read_tigmodepreflow
                    0x0d72                  _read_tigmodestartcurrent
                    0x0d74                  _read_tigmodeupslopetime
                    0x0c58                  _read_tjointtype
                    0x13c0                  _read_tmaterial
                    0x13c2                  _read_tplatesize
                    0x0c5c                  _read_tpostflow
                    0x13b6                  _read_tpreflow
                    0x13bc                  _read_tsetcurrent
                    0x13b8                  _read_tstartcurrent
                    0x13ba                  _read_tupslopetime
                    0x1382                  _rec_arr
                    0x0a77                  _recchksum
                    0x0a1d                  _recstatus
                    0x0a1e                  _recwfstatus
                    0x08e4                  _refbaseamp
                    0x0a8c                  _refbasetm
                    0x08d8                  _refbtime
                    0x09da                  _reference_area
                    0x0bc2                  _refpeakamp
                    0x0bc4                  _refpeaktm
                    0x08e2                  _refpulsebase
                    0x09dc                  _refpulsefreq
                    0x0b94                  _refstepamp
                    0x094a                  _rel_wirespeed
                    0x14f1                  _remotekeyfoundfg
                    0x0813                  _result
                    0x0bb0                  _ripplecnt
                    0x0bb2                  _ripplecurrent
                    0x0d98                  _samplecnt
                    0x0d28                  _save_location
                    0x0cfa                  _scale_factor
                    0x09ae                  _scaled_baseval
                    0x08ec                  _scaled_baseval2
                    0x08f0                  _scaled_baseval22
                    0x09e4                  _scaled_output1
                    0x0d24                  _scaled_sf_pidoutput
                    0x15ba                  _scaled_val
                    0x09aa                  _scaled_val1
                    0x137e                  _scaled_val2
                    0x158a                  _scalefactor
                    0x09d8                  _scalefactor1
                    0x09d6                  _scalefactor2
                    0x081e                  _scan_count
                    0x0b32                  _sck_current_ref
                    0x0a32                  _sckdaccount
                    0x0892                  _sdaccount
                    0x148b                  _second_digits
                    0x1319                  _secondpulse1
                    0x131a                  _secondpulse2
                    0x131b                  _secondpulse3
                    0x0a17                  _sendoncef
                    0x1493                  _setPasswordfg
                    0x1462                  _set_password
                    0x0a28                  _setbaseamp
                    0x08b5                  _setbasef
                    0x0810                  _setdp
                    0x08b6                  _setfreqf
                    0x0c12                  _setlcdweldparameter
                    0x0a0a                  _setparaBkdf
                    0x0a09                  _setparaBkif
                    0x0a08                  _setparaBkpf
                    0x0a0d                  _setparaPkdf
                    0x0a0c                  _setparaPkif
                    0x0a0b                  _setparaPkpf
                    0x08b3                  _setpeakf
                    0x0988                  _setpidbamp
                    0x082c                  _setptimef
                    0x0beb                  _setrefparaf
                    0x0d43                  _setrefparaf_crater
                    0x08b4                  _setstepf
                    0x082d                  _setstimef
                    0x08b2                  _setupmode
                    0x08de                  _setwsfreq
                    0x0d0e                  _sf_accumulator
                    0x14bc                  _sf_accumulator_new
                    0x0d1a                  _sf_dterm
                    0x1428                  _sf_error
                    0x1426                  _sf_feedback
                    0x0d16                  _sf_iterm
                    0x0d04                  _sf_kdgain
                    0x0d02                  _sf_kigain
                    0x0d00                  _sf_kpgain
                    0x0d20                  _sf_mig_scalefactor
                    0x142a                  _sf_neg_error
                    0x0d06                  _sf_outputmax
                    0x0d0a                  _sf_outputmin
                    0x143c                  _sf_pid
                    0x0d22                  _sf_pidoutput
                    0x142c                  _sf_preverror
                    0x0d12                  _sf_pterm
                    0x0d1e                  _sf_scalefactor
                    0x1424                  _sf_setpoint
                    0x0ba4                  _shiftbvtgf
                    0x0d9e                  _short_circuit_cnt_100ms
                    0x0d9c                  _short_delay
                    0x0836                  _shortcktonf
                    0x08e0                  _softstartcnt
                    0x082a                  _softstartf
                    0x094c                  _startbmeasuref
                    0x0c8c                  _startpcvloop
                    0x0a75                  _startptr1
                    0x08c8                  _startpulsetime
                    0x0a8a                  _startpulsetm
                    0x0a1c                  _startstatus1
                    0x0b1d                  _startstatustx2
                    0x0b1b                  _starttx2
                    0x0b0a                  _step_base
                    0x0b0c                  _step_freq
                    0x089e                  _stepamp
                    0x08ac                  _stepf
                    0x08bc                  _steptime
                    0x0b60                  _steptm
                    0x096a                  _stopbasef
                    0x14c0                  _strRXFramefg
                    0x0c08                  _strttmr
                    0x0912                  _sum_circular_arr
                    0x0cf0                  _sum_mpulsevtg
                    0x0ac0                  _sum_setcurrent
                    0x0c92                  _sumbasevoltage
                    0x0ac2                  _sumdaccount
                    0x0c8e                  _sumpulsevoltage
                    0x0aee                  _tarbasevtg
                    0x0cf4                  _target_bvtg
                    0x174c                  _tdia
                    0x080d                  _temp
                    0x0b34                  _temp_mjp
                    0x1464                  _temp_password
                    0x0a94                  _temp_pidmaxbaseamp
                    0x0a90                  _temp_pidminbaseamp
                    0x0a4c                  _temperror1
                    0x0a4e                  _temperror2
                    0x080c                  _tempkey
                    0x0bc0                  _tempmjp
                    0x0b80                  _tempval
                    0x09c4                  _tempvtg
                    0x09bc                  _tempvtgcnt
                    0x0bba                  _testmahe
                    0x149a                  _testmigfg
                    0x0bfe                  _thickness1
                    0x0c00                  _thickness2
                    0x148c                  _third_digits
                    0x0d82                  _tig4tupslpbrkcurrent
                    0x14aa                  _tig_ocv_check_f
                    0x0d88                  _tig_ocv_on_flag
                    0x0d6e                  _tig_pulse1_normal0
                    0x0d86                  _tig_torch_relse_4t
                    0x0d68                  _tig_twot_fourt
                    0x0d92                  _tig_weld_cycle_current
                    0x0d7e                  _time_100ms
                    0x0c3a                  _timecount11
                    0x08cc                  _timer_first_edge
                    0x08ce                  _timer_second_edge
                    0x0c1c                  _timerval
                    0x146c                  _timerval_1ms
                    0x174e                  _tjoint
                    0x174a                  _tmat
                    0x0cd8                  _tmbasevtg
                    0x0cd0                  _tmmsrbaseoncnt
                    0x0ccc                  _tmmsrpulseoncnt
                    0x0cd4                  _tmpeakvtg
                    0x0a16                  _togglepin
                    0x1531                  _torch
                    0x0c0f                  _torchenable
                    0x0c0d                  _torchrelease
                    0x0d89                  _torchreleasef
                    0x0c09                  _torchval
                    0x0980                  _total_fltbvtg
                    0x0a96                  _total_pulse_tm
                    0x0a88                  _totalpeakvtg
                    0x0974                  _totalsumbcnt
                    0x0970                  _totalsumbvtg
                    0x097c                  _totalsumtrip
                    0x09ba                  _totaltempvtg
                    0x0b96                  _tpulsetime
                    0x094f                  _trans2_onf
                    0x12f2                  _trans_ps_wf_arr
                    0x0a14                  _transmit2f
                    0x0a78                  _transmitonf
                    0x0a79                  _transonf
                    0x0d3c                  _trip_adc_complet_flag
                    0x0be9                  _tungsten_size
                    0x083a                  _twinpulsecnt
                    0x099a                  _twinpulseduty
                    0x0992                  _twinpulsefreq
                    0x09a6                  _twinpulseoffperiod
                    0x09a2                  _twinpulseonperiod
                    0x0996                  _twinpulseperiod
                    0x099e                  _twinpulseratio
                    0x0b10                  _twn_rmp_down_offst_tm
                    0x0b1a                  _tx2chksum
                    0x0b1c                  _tx2counter
                    0x0a5c                  _tx2data
                    0x0b1e                  _tx2statuscounter
                    0x0a6a                  _uartdata1
                    0x0a6c                  _uartdata2
                    0x0d31                  _universal_error_flag
                    0x0d32                  _universal_error_latch
                    0x0b7c                  _upcnt
                    0x0c16                  _updatelcdf
                    0x088e                  _uppdaccount
                    0x088a                  _uppeakamp
                    0x0d8b                  _upslopef
                    0x0a02                  _upstep
                    0x1492                  _usbDataLogStartfg
                    0x0d94                  _usb_0error_1ok
                    0x0d96                  _usb_start_fg
                    0x0dae                  _vOffset
                    0x0c14                  _vOffsetmax
                    0x0850                  _val
                    0x0bfa                  _voltage1
                    0x0bfc                  _voltage2
                    0x0b48                  _voltagechangef
                    0x0c20                  _voltageref
                    0x131c                  _vtg_circular_arr
                    0x0964                  _vtg_circular_cnt
                    0x0d42                  _weld_p_para_latch
                    0x14ac                  _weld_short_tig_fg
                    0x0a7b                  _weldcycleon
                    0x0a19                  _weldcyclestrt
                    0x0833                  _weldingonf
                    0x082b                  _weldmodeoff
                    0x0ba5                  _weldon_detectf
                    0x0bac                  _weldoncnt
                    0x08aa                  _weldonf
                    0x09e2                  _weldonstartbcnt
                    0x09e0                  _weldonstartfcnt
                    0x083c                  _weldwiredia
                    0x0969                  _wfchangef
                    0x0a50                  _wfspeed
                    0x12e2                  _wfstatusu
                    0x0bf4                  _wirespeed
                    0x0928                  _wirestickdowncnt
                    0x09c2                  _wirestickf
                    0x0926                  _wirestickupcnt

External Symbols in Program Memory (by address):

                  0x000100                  __resetPRI
                  0x000180                  ___floatsisf
                  0x0001d6                  ___subsf3
                  0x0001d8                  ___addsf3
                  0x000292                  ___eqsf2
                  0x000292                  ___lesf2
                  0x000292                  ___ltsf2
                  0x000296                  ___gtsf2
                  0x000296                  ___gesf2
                  0x00029a                  ___mulsf3
                  0x000302                  ___fixunssfsi
                  0x000338                  ___divsf3
                  0x0003bc                  ___fixsfsi
                  0x0003fe                  __fpack
                  0x00044a                  __funpack2
                  0x00045a                  __fPropagateNaN
                  0x00046c                  __fbopExit
                  0x000474                  __fbopReturnNaN
                  0x00047a                  __fcompare
                  0x0004b0                  __funpack
                  0x0004da                  _write_mode_mem
                  0x00059c                  _recall_mode_mem
                  0x00066c                  _EEPROM_Read
                  0x00074e                  _EEPROM_Erase_Write
                  0x0008ba                  _EEPROM_Read_for_SaveRecall
                  0x0008fa                  _EEPROM_Erase_Write_for_SaveRecall
                  0x0009c4                  _read_current_status
                  0x000b78                  _write_current_status
                  0x000cd8                  _check_eeprom_values
                  0x000dce                  __INT1Interrupt
                  0x000dd6                  __INT2Interrupt
                  0x000dde                  __T1Interrupt
                  0x00161c                  __T3Interrupt
                  0x00162c                  __T5Interrupt
                  0x00163c                  __T4Interrupt
                  0x00169a                  __ADCInterrupt
                  0x0018d8                  __SPI2Interrupt
                  0x0018f0                  _latdata
                  0x001a52                  _display_data
                  0x001bb0                  _lcd_disp_hex_dec
                  0x001bee                  _disp_hex_dec_curr
                  0x001c2c                  _disp_hex_dec_volt
                  0x001c6a                  _disp_hex_dec_arclength2
                  0x001cea                  _display_start
                  0x001d0a                  _keypad_read
                  0x001d32                  _init_keyportpin
                  0x001d46                  _allrowlogic0
                  0x001d4c                  _allcolumnlogic1
                  0x001d58                  _scanrow
                  0x001dcc                  _keyrelease
                  0x001e02                  _key_press
                  0x001e1a                  _getkey
                  0x001e6c                  _columnnum1
                  0x001e9c                  _all0exceptcolumn1
                  0x001ea8                  _all0exceptcolumn2
                  0x001eb4                  _all0exceptcolumn3
                  0x001ec0                  _keydelay
                  0x001ed4                  _debounce_delay
                  0x001ee6                  _key_application
                  0x00227e                  _MMAWELD
                  0x002650                  _MMACCLookup
                  0x002716                  _MMAVRDMenu
                  0x002734                  _TIGWELD
                  0x002892                  _TIGCCLookup
                  0x002902                  _MIGWELD
                  0x002df0                  _cMIGGasMenu
                  0x002e10                  _cVoltageoffsetMenu
                  0x002e2e                  _cMIGMenu
                  0x002f16                  _Generate_Reference
                  0x00313c                  _inch_motor
                  0x00317e                  _motor_control_pid
                  0x00331c                  _MIG_superfast_PID
                  0x0034c8                  _Generate_DAC_Reference
                  0x0035ae                  _check_torch_action
                  0x0035e2                  _torchaction
                  0x003a78                  _main
                  0x003fd0                  _delay_mig_torch
                  0x003fe4                  _SYSTEM_INIT
                  0x003ff6                  _SPI_INIT
                  0x00403c                  _TIMER1_INIT
                  0x004060                  _TIMER3_INIT
                  0x004084                  _TIMER4_INIT
                  0x0040a8                  _TIMER5_INIT
                  0x0040c2                  _PWM_INIT
                  0x0040fc                  _ADC_INIT
                  0x004188                  _PORTPIN_INIT
                  0x0041f8                  _INT12_INIT
                  0x00422e                  _trip_detection
                  0x0042f2                  _trip1_detection
                  0x00432e                  _Detect_error
                  0x00478c                  _ADC_Reference
                  0x0051e4                  _model_selection
                  0x0052a4                  _para_minu
                  0x005314                  _para_maxu
                  0x005384                  _Decay_lookup1
                  0x0053ea                  _Decay_lookup2
                  0x005450                  _keyeqv
                  0x00545c                  _lookup_table
                  0x00574c                  _ar11
                  0x00575a                  _ar12
                  0x00576f                  _ar13
                  0x005784                  _ar14
                  0x005795                  _ar15
                  0x0057b1                  _ar20
                  0x0057c6                  _mmatms
                  0x0057ca                  _mmatss
                  0x0057ce                  _mmatci
                  0x0057d2                  _mdiatwoptfive
                  0x0057d6                  _mdiathreepttwo
                  0x0057da                  _mdiafourptzero
                  0x0057de                  _mdiafiveptzero
                  0x0057e2                  _msevenzero
                  0x0057e9                  _msixzero
                  0x0057f0                  _mcelwel
                  0x0057f7                  _mthreezero
                  0x0057fe                  _mnicl
                  0x005805                  _ar81
                  0x005814                  _ar82
                  0x00583e                  _ar83
                  0x005867                  _ar84
                  0x005873                  _ar85
                  0x005882                  _ar86
                  0x00588b                  _ar87
                  0x005897                  _ar88
                  0x0058a7                  _ar89
                  0x0058b7                  _ar90
                  0x0058c4                  _ar31
                  0x0058d2                  _ar32
                  0x0058e7                  _ar33
                  0x0058fc                  _ar34
                  0x00590b                  _ar35
                  0x005920                  _ar36
                  0x005935                  _ar37
                  0x00594a                  _ar38
                  0x005961                  _ar39
                  0x005978                  _ar40
                  0x00598d                  _ar45
                  0x00599b                  _matms
                  0x0059a3                  _matss
                  0x0059ab                  _matalu
                  0x0059b3                  _matssfcaw
                  0x0059bb                  _matmsfcaw
                  0x0059c3                  _diazeropteight
                  0x0059c7                  _diaoneptzero
                  0x0059cb                  _diaonepttwo
                  0x0059cf                  _diaoneptsix
                  0x0059d3                  _gasarco2
                  0x0059d9                  _gasco2
                  0x0059df                  _gastype1
                  0x0059e7                  _gastype2
                  0x0059ef                  _gasaro2
                  0x0059f5                  _gasar
                  0x0059fb                  _cMatMigTxt
                  0x005a3a                  _cDiaTxt
                  0x005a58                  _cGasTxt
                  0x005a7c                  _cGasPercent
                  0x005aac                  _ar51
                  0x005ac1                  _ar52
                  0x005ad6                  _ar53
                  0x005aeb                  _ar54
                  0x005b00                  _ar55
                  0x005b15                  _ar21
                  0x005b23                  _ar22
                  0x005b38                  _ar23
                  0x005b4d                  _ar30
                  0x005b62                  _ar24
                  0x005b77                  _ar25
                  0x005b8c                  _ar26
                  0x005ba1                  _ar27
                  0x005bb6                  _ar28
                  0x005bcb                  _ar29
                  0x005be0                  _arFOOT
                  0x005bec                  _arNORM
                  0x005bf8                  _tmatss
                  0x005bfc                  _tmatdcu
                  0x005c00                  _tdiaoneptsix
                  0x005c05                  _tdiatwoptfour
                  0x005c0a                  _tdiathreepttwo
                  0x005c0f                  _tdiafourpteight
                  0x005c14                  _tdiasixptfour
                  0x005c19                  _tdiatwelvepteight
                  0x005c1e                  _tbutt
                  0x005c25                  _tlap
                  0x005c2c                  _tcorner
                  0x005c33                  _tfillet
                  0x005c3a                  _ar41
                  0x005c48                  _ar42
                  0x005c5d                  _ar43
                  0x005c72                  _ar44
                  0x005c82                  _ar50
                  0x005c97                  _pmatms
                  0x005c9f                  _pmat71t1
                  0x005ca7                  _pmat180r
                  0x005caf                  _pmatss18
                  0x005cb7                  _pmatss19
                  0x005cbf                  _pmatalu4043
                  0x005cc7                  _pmatalu5356
                  0x005ccf                  _pmatalu99
                  0x005cd7                  _ar0
                  0x005ced                  _ar1
                  0x005cfc                  _ar2
                  0x005d0c                  _ar3
                  0x005d18                  _cErrorMsgLine1
                  0x005d80                  _cErrorMsgLine2
                  0x005de8                  _cErrorMsgLine3
                  0x0063ee                  __DefaultInterrupt
                  0xf8000a                  __FGS.sec

External Symbols in Program Memory (by name):

                  0x0040fc                  _ADC_INIT
                  0x00478c                  _ADC_Reference
                  0x005384                  _Decay_lookup1
                  0x0053ea                  _Decay_lookup2
                  0x00432e                  _Detect_error
                  0x00074e                  _EEPROM_Erase_Write
                  0x0008fa                  _EEPROM_Erase_Write_for_SaveRecall
                  0x00066c                  _EEPROM_Read
                  0x0008ba                  _EEPROM_Read_for_SaveRecall
                  0x0034c8                  _Generate_DAC_Reference
                  0x002f16                  _Generate_Reference
                  0x0041f8                  _INT12_INIT
                  0x002902                  _MIGWELD
                  0x00331c                  _MIG_superfast_PID
                  0x002650                  _MMACCLookup
                  0x002716                  _MMAVRDMenu
                  0x00227e                  _MMAWELD
                  0x004188                  _PORTPIN_INIT
                  0x0040c2                  _PWM_INIT
                  0x003ff6                  _SPI_INIT
                  0x003fe4                  _SYSTEM_INIT
                  0x002892                  _TIGCCLookup
                  0x002734                  _TIGWELD
                  0x00403c                  _TIMER1_INIT
                  0x004060                  _TIMER3_INIT
                  0x004084                  _TIMER4_INIT
                  0x0040a8                  _TIMER5_INIT
                  0x00169a                  __ADCInterrupt
                  0x0063ee                  __DefaultInterrupt
                  0xf8000a                  __FGS.sec
                  0x000dce                  __INT1Interrupt
                  0x000dd6                  __INT2Interrupt
                  0x0018d8                  __SPI2Interrupt
                  0x000dde                  __T1Interrupt
                  0x00161c                  __T3Interrupt
                  0x00163c                  __T4Interrupt
                  0x00162c                  __T5Interrupt
                  0x0001d8                  ___addsf3
                  0x000338                  ___divsf3
                  0x000292                  ___eqsf2
                  0x0003bc                  ___fixsfsi
                  0x000302                  ___fixunssfsi
                  0x000180                  ___floatsisf
                  0x000296                  ___gesf2
                  0x000296                  ___gtsf2
                  0x000292                  ___lesf2
                  0x000292                  ___ltsf2
                  0x00029a                  ___mulsf3
                  0x0001d6                  ___subsf3
                  0x00045a                  __fPropagateNaN
                  0x00046c                  __fbopExit
                  0x000474                  __fbopReturnNaN
                  0x00047a                  __fcompare
                  0x0003fe                  __fpack
                  0x0004b0                  __funpack
                  0x00044a                  __funpack2
                  0x000100                  __resetPRI
                  0x001e9c                  _all0exceptcolumn1
                  0x001ea8                  _all0exceptcolumn2
                  0x001eb4                  _all0exceptcolumn3
                  0x001d4c                  _allcolumnlogic1
                  0x001d46                  _allrowlogic0
                  0x005cd7                  _ar0
                  0x005ced                  _ar1
                  0x00574c                  _ar11
                  0x00575a                  _ar12
                  0x00576f                  _ar13
                  0x005784                  _ar14
                  0x005795                  _ar15
                  0x005cfc                  _ar2
                  0x0057b1                  _ar20
                  0x005b15                  _ar21
                  0x005b23                  _ar22
                  0x005b38                  _ar23
                  0x005b62                  _ar24
                  0x005b77                  _ar25
                  0x005b8c                  _ar26
                  0x005ba1                  _ar27
                  0x005bb6                  _ar28
                  0x005bcb                  _ar29
                  0x005d0c                  _ar3
                  0x005b4d                  _ar30
                  0x0058c4                  _ar31
                  0x0058d2                  _ar32
                  0x0058e7                  _ar33
                  0x0058fc                  _ar34
                  0x00590b                  _ar35
                  0x005920                  _ar36
                  0x005935                  _ar37
                  0x00594a                  _ar38
                  0x005961                  _ar39
                  0x005978                  _ar40
                  0x005c3a                  _ar41
                  0x005c48                  _ar42
                  0x005c5d                  _ar43
                  0x005c72                  _ar44
                  0x00598d                  _ar45
                  0x005c82                  _ar50
                  0x005aac                  _ar51
                  0x005ac1                  _ar52
                  0x005ad6                  _ar53
                  0x005aeb                  _ar54
                  0x005b00                  _ar55
                  0x005805                  _ar81
                  0x005814                  _ar82
                  0x00583e                  _ar83
                  0x005867                  _ar84
                  0x005873                  _ar85
                  0x005882                  _ar86
                  0x00588b                  _ar87
                  0x005897                  _ar88
                  0x0058a7                  _ar89
                  0x0058b7                  _ar90
                  0x005be0                  _arFOOT
                  0x005bec                  _arNORM
                  0x005a3a                  _cDiaTxt
                  0x005d18                  _cErrorMsgLine1
                  0x005d80                  _cErrorMsgLine2
                  0x005de8                  _cErrorMsgLine3
                  0x005a7c                  _cGasPercent
                  0x005a58                  _cGasTxt
                  0x002df0                  _cMIGGasMenu
                  0x002e2e                  _cMIGMenu
                  0x0059fb                  _cMatMigTxt
                  0x002e10                  _cVoltageoffsetMenu
                  0x000cd8                  _check_eeprom_values
                  0x0035ae                  _check_torch_action
                  0x001e6c                  _columnnum1
                  0x001ed4                  _debounce_delay
                  0x003fd0                  _delay_mig_torch
                  0x0059cf                  _diaoneptsix
                  0x0059cb                  _diaonepttwo
                  0x0059c7                  _diaoneptzero
                  0x0059c3                  _diazeropteight
                  0x001c6a                  _disp_hex_dec_arclength2
                  0x001bee                  _disp_hex_dec_curr
                  0x001c2c                  _disp_hex_dec_volt
                  0x001a52                  _display_data
                  0x001cea                  _display_start
                  0x0059f5                  _gasar
                  0x0059d3                  _gasarco2
                  0x0059ef                  _gasaro2
                  0x0059d9                  _gasco2
                  0x0059df                  _gastype1
                  0x0059e7                  _gastype2
                  0x001e1a                  _getkey
                  0x00313c                  _inch_motor
                  0x001d32                  _init_keyportpin
                  0x001ee6                  _key_application
                  0x001e02                  _key_press
                  0x001ec0                  _keydelay
                  0x005450                  _keyeqv
                  0x001d0a                  _keypad_read
                  0x001dcc                  _keyrelease
                  0x0018f0                  _latdata
                  0x001bb0                  _lcd_disp_hex_dec
                  0x00545c                  _lookup_table
                  0x003a78                  _main
                  0x0059ab                  _matalu
                  0x00599b                  _matms
                  0x0059bb                  _matmsfcaw
                  0x0059a3                  _matss
                  0x0059b3                  _matssfcaw
                  0x0057f0                  _mcelwel
                  0x0057de                  _mdiafiveptzero
                  0x0057da                  _mdiafourptzero
                  0x0057d6                  _mdiathreepttwo
                  0x0057d2                  _mdiatwoptfive
                  0x0057ce                  _mmatci
                  0x0057c6                  _mmatms
                  0x0057ca                  _mmatss
                  0x0057fe                  _mnicl
                  0x0051e4                  _model_selection
                  0x00317e                  _motor_control_pid
                  0x0057e2                  _msevenzero
                  0x0057e9                  _msixzero
                  0x0057f7                  _mthreezero
                  0x005314                  _para_maxu
                  0x0052a4                  _para_minu
                  0x005ca7                  _pmat180r
                  0x005c9f                  _pmat71t1
                  0x005cbf                  _pmatalu4043
                  0x005cc7                  _pmatalu5356
                  0x005ccf                  _pmatalu99
                  0x005c97                  _pmatms
                  0x005caf                  _pmatss18
                  0x005cb7                  _pmatss19
                  0x0009c4                  _read_current_status
                  0x00059c                  _recall_mode_mem
                  0x001d58                  _scanrow
                  0x005c1e                  _tbutt
                  0x005c2c                  _tcorner
                  0x005c0f                  _tdiafourpteight
                  0x005c00                  _tdiaoneptsix
                  0x005c14                  _tdiasixptfour
                  0x005c0a                  _tdiathreepttwo
                  0x005c19                  _tdiatwelvepteight
                  0x005c05                  _tdiatwoptfour
                  0x005c33                  _tfillet
                  0x005c25                  _tlap
                  0x005bfc                  _tmatdcu
                  0x005bf8                  _tmatss
                  0x0035e2                  _torchaction
                  0x0042f2                  _trip1_detection
                  0x00422e                  _trip_detection
                  0x000b78                  _write_current_status
                  0x0004da                  _write_mode_mem

Memory Configuration

Name             Origin             Length             Attributes
data             0x000800           0x001fa0           a !xr
program          0x000100           0x017f00           xr
reset            0x000000           0x000004  
ivt              0x000004           0x00007c  
aivt             0x000084           0x00007c  
__FOSC           0xf80000           0x000002  
__FWDT           0xf80002           0x000002  
__FBORPOR        0xf80004           0x000002  
__FBS            0xf80006           0x000002  
__FSS            0xf80008           0x000002  
__FGS            0xf8000a           0x000002  
__FUID0          0x8005c0           0x000002  
__FUID1          0x8005c2           0x000002  
__FUID2          0x8005c4           0x000002  
__FUID3          0x8005c6           0x000002  
eedata           0x7ff000           0x001000  
*default*        0x000000           0xffffffff  

Linker script and memory map

LOAD MAIN.o
LOAD c:/program files (x86)/microchip/mplab c30/bin/../lib\libdsp-coff.a
LOAD c:/program files (x86)/microchip/mplab c30/bin/../lib\libpic30-coff.a
LOAD c:/program files (x86)/microchip/mplab c30/bin/../lib\libm-coff.a
LOAD c:/program files (x86)/microchip/mplab c30/bin/../lib\libc-coff.a
                    0xf80000                  __FOSC = 0xf80000
                    0xf80002                  __FWDT = 0xf80002
                    0xf80004                  __FBORPOR = 0xf80004
                    0xf80006                  __FBS = 0xf80006
                    0xf80008                  __FSS = 0xf80008
                    0xf8000a                  __FGS = 0xf8000a
                    0x8005c0                  __FUID0 = 0x8005c0
                    0x8005c2                  __FUID1 = 0x8005c2
                    0x8005c4                  __FUID2 = 0x8005c4
                    0x8005c6                  __FUID3 = 0x8005c6
                    0x0000                  __RESET_BASE = 0x0
                    0x0004                  __IVT_BASE = 0x4
                    0x0084                  __AIVT_BASE = 0x84
                    0x0100                  __CODE_BASE = 0x100
                    0x0000                  __SFR_BASE = 0x0
                    0x0800                  __DATA_BASE = 0x800
                    0x1800                  __YDATA_BASE = 0x1800

.reset            0x000000          0x4
                  0x000000          0x2 SHORT 0x100 <code 336> (__reset)
                  0x000001          0x2 SHORT 0x4
                  0x000002          0x2 SHORT 0x0 ((<code 336> (__reset) >> 0x10) & 0x7f)
                  0x000003          0x2 SHORT 0x0

.text             0x000100       0x51a4
 *(.handle)
 *(.libc)
 .libc            0x000100         0x80 c:/program files (x86)/microchip/mplab c30/bin/../lib\libpic30-coff.a(crt0.o)
                  0x000100                  _resetPRI
                  0x000100                  _reset
                  0x000114                  _psv_init
                  0x000124                  _data_init
 *(.libm)
 .libm            0x000180         0x56 c:/program files (x86)/microchip/mplab c30/bin/../lib\libm-coff.a(floatsisf.o)
                  0x000180                  __floatsisf
 .libm            0x0001d6         0xbc c:/program files (x86)/microchip/mplab c30/bin/../lib\libm-coff.a(addsf3.o)
                  0x0001d6                  __subsf3
                  0x0001d8                  __addsf3
 .libm            0x000292          0x4 c:/program files (x86)/microchip/mplab c30/bin/../lib\libm-coff.a(feqltle.o)
                  0x000292                  __eqsf2
                  0x000292                  __ltsf2
                  0x000292                  __lesf2
 .libm            0x000296          0x4 c:/program files (x86)/microchip/mplab c30/bin/../lib\libm-coff.a(fgtge.o)
                  0x000296                  __gesf2
                  0x000296                  __gtsf2
 .libm            0x00029a         0x68 c:/program files (x86)/microchip/mplab c30/bin/../lib\libm-coff.a(mulsf3.o)
                  0x00029a                  __mulsf3
 .libm            0x000302         0x36 c:/program files (x86)/microchip/mplab c30/bin/../lib\libm-coff.a(fixunssfsi.o)
                  0x000302                  __fixunssfsi
 .libm            0x000338         0x84 c:/program files (x86)/microchip/mplab c30/bin/../lib\libm-coff.a(divsf3.o)
                  0x000338                  __divsf3
 .libm            0x0003bc         0x42 c:/program files (x86)/microchip/mplab c30/bin/../lib\libm-coff.a(fixsfsi.o)
                  0x0003bc                  __fixsfsi
 .libm            0x0003fe         0x4c c:/program files (x86)/microchip/mplab c30/bin/../lib\libm-coff.a(fpack.o)
                  0x0003fe                  _fpack
 .libm            0x00044a         0x10 c:/program files (x86)/microchip/mplab c30/bin/../lib\libm-coff.a(funpack2.o)
                  0x00044a                  _funpack2
 .libm            0x00045a         0x20 c:/program files (x86)/microchip/mplab c30/bin/../lib\libm-coff.a(futil.o)
                  0x00045a                  _fPropagateNaN
                  0x00046c                  _fbopExit
                  0x000474                  _fbopReturnNaN
 .libm            0x00047a         0x36 c:/program files (x86)/microchip/mplab c30/bin/../lib\libm-coff.a(fcompare.o)
                  0x00047a                  _fcompare
 .libm            0x0004b0         0x2a c:/program files (x86)/microchip/mplab c30/bin/../lib\libm-coff.a(funpack.o)
                  0x0004b0                  _funpack
 *(.libdsp)
 *(.lib*)
 *(.text)
 .text            0x0004da       0x4dca MAIN.o
                  0x0004da                  write_mode_mem
                  0x00059c                  recall_mode_mem
                  0x00066c                  EEPROM_Read
                  0x00074e                  EEPROM_Erase_Write
                  0x0008ba                  EEPROM_Read_for_SaveRecall
                  0x0008fa                  EEPROM_Erase_Write_for_SaveRecall
                  0x0009c4                  read_current_status
                  0x000b78                  write_current_status
                  0x000cd8                  check_eeprom_values
                  0x000dce                  _INT1Interrupt
                  0x000dd6                  _INT2Interrupt
                  0x000dde                  _T1Interrupt
                  0x00161c                  _T3Interrupt
                  0x00162c                  _T5Interrupt
                  0x00163c                  _T4Interrupt
                  0x00169a                  _ADCInterrupt
                  0x0018d8                  _SPI2Interrupt
                  0x0018f0                  latdata
                  0x001a52                  display_data
                  0x001bb0                  lcd_disp_hex_dec
                  0x001bee                  disp_hex_dec_curr
                  0x001c2c                  disp_hex_dec_volt
                  0x001c6a                  disp_hex_dec_arclength2
                  0x001cea                  display_start
                  0x001d0a                  keypad_read
                  0x001d32                  init_keyportpin
                  0x001d46                  allrowlogic0
                  0x001d4c                  allcolumnlogic1
                  0x001d58                  scanrow
                  0x001dcc                  keyrelease
                  0x001e02                  key_press
                  0x001e1a                  getkey
                  0x001e6c                  columnnum1
                  0x001e9c                  all0exceptcolumn1
                  0x001ea8                  all0exceptcolumn2
                  0x001eb4                  all0exceptcolumn3
                  0x001ec0                  keydelay
                  0x001ed4                  debounce_delay
                  0x001ee6                  key_application
                  0x00227e                  MMAWELD
                  0x002650                  MMACCLookup
                  0x002716                  MMAVRDMenu
                  0x002734                  TIGWELD
                  0x002892                  TIGCCLookup
                  0x002902                  MIGWELD
                  0x002df0                  cMIGGasMenu
                  0x002e10                  cVoltageoffsetMenu
                  0x002e2e                  cMIGMenu
                  0x002f16                  Generate_Reference
                  0x00313c                  inch_motor
                  0x00317e                  motor_control_pid
                  0x00331c                  MIG_superfast_PID
                  0x0034c8                  Generate_DAC_Reference
                  0x0035ae                  check_torch_action
                  0x0035e2                  torchaction
                  0x003a78                  main
                  0x003fd0                  delay_mig_torch
                  0x003fe4                  SYSTEM_INIT
                  0x003ff6                  SPI_INIT
                  0x00403c                  TIMER1_INIT
                  0x004060                  TIMER3_INIT
                  0x004084                  TIMER4_INIT
                  0x0040a8                  TIMER5_INIT
                  0x0040c2                  PWM_INIT
                  0x0040fc                  ADC_INIT
                  0x004188                  PORTPIN_INIT
                  0x0041f8                  INT12_INIT
                  0x00422e                  trip_detection
                  0x0042f2                  trip1_detection
                  0x00432e                  Detect_error
                  0x00478c                  ADC_Reference
                  0x0051e4                  model_selection

usercode
 *(usercode)

__FOSC            0xf80000          0x2
 *(__FOSC.sec)
 __FOSC.sec       0xf80000          0x2 MAIN.o

__FWDT            0xf80002          0x2
 *(__FWDT.sec)
 __FWDT.sec       0xf80002          0x2 MAIN.o

__FBORPOR         0xf80004          0x2
 *(__FBORPOR.sec)
 __FBORPOR.sec    0xf80004          0x2 MAIN.o

__FBS
 *(__FBS.sec)

__FSS
 *(__FSS.sec)

__FGS             0xf8000a          0x2
 *(__FGS.sec)
 __FGS.sec        0xf8000a          0x2 FGS
                  0xf8000a                  _FGS.sec

__FUID0
 *(__FUID0.sec)

__FUID1
 *(__FUID1.sec)

__FUID2
 *(__FUID2.sec)

__FUID3
 *(__FUID3.sec)

user_eedata
 *(user_eedata)

userdata
 *(userdata)

.comment
 *(.comment)

.debug_info
 *(.debug_info)
 *(.gnu.linkonce.wi.*)

.debug_abbrev
 *(.debug_abbrev)

.debug_line
 *(.debug_line)

.debug_frame
 *(.debug_frame)

.debug_str
 *(.debug_str)

.debug_loc
 *(.debug_loc)

.debug_macinfo
 *(.debug_macinfo)

.debug_pubnames
 *(.debug_pubnames)

.debug_ranges
 *(.debug_ranges)

.debug_aranges
 *(.debug_aranges)

.ivt              0x000004         0x7c
                  0x000004          0x4 LONG 0x63ee DEFINED (__ReservedTrap0)?<code 336> (__ReservedTrap0):<code 336> (__DefaultInterrupt)
                  0x000006          0x4 LONG 0x63ee DEFINED (__OscillatorFail)?<code 336> (__OscillatorFail):<code 336> (__DefaultInterrupt)
                  0x000008          0x4 LONG 0x63ee DEFINED (__AddressError)?<code 336> (__AddressError):<code 336> (__DefaultInterrupt)
                  0x00000a          0x4 LONG 0x63ee DEFINED (__StackError)?<code 336> (__StackError):<code 336> (__DefaultInterrupt)
                  0x00000c          0x4 LONG 0x63ee DEFINED (__MathError)?<code 336> (__MathError):<code 336> (__DefaultInterrupt)
                  0x00000e          0x4 LONG 0x63ee DEFINED (__ReservedTrap5)?<code 336> (__ReservedTrap5):<code 336> (__DefaultInterrupt)
                  0x000010          0x4 LONG 0x63ee DEFINED (__ReservedTrap6)?<code 336> (__ReservedTrap6):<code 336> (__DefaultInterrupt)
                  0x000012          0x4 LONG 0x63ee DEFINED (__ReservedTrap7)?<code 336> (__ReservedTrap7):<code 336> (__DefaultInterrupt)
                  0x000014          0x4 LONG 0x63ee DEFINED (__INT0Interrupt)?<code 336> (__INT0Interrupt):<code 336> (__DefaultInterrupt)
                  0x000016          0x4 LONG 0x63ee DEFINED (__IC1Interrupt)?<code 336> (__IC1Interrupt):<code 336> (__DefaultInterrupt)
                  0x000018          0x4 LONG 0x63ee DEFINED (__OC1Interrupt)?<code 336> (__OC1Interrupt):<code 336> (__DefaultInterrupt)
                  0x00001a          0x4 LONG 0xdde DEFINED (__T1Interrupt)?<code 336> (__T1Interrupt):<code 336> (__DefaultInterrupt)
                  0x00001c          0x4 LONG 0x63ee DEFINED (__IC2Interrupt)?<code 336> (__IC2Interrupt):<code 336> (__DefaultInterrupt)
                  0x00001e          0x4 LONG 0x63ee DEFINED (__OC2Interrupt)?<code 336> (__OC2Interrupt):<code 336> (__DefaultInterrupt)
                  0x000020          0x4 LONG 0x63ee DEFINED (__T2Interrupt)?<code 336> (__T2Interrupt):<code 336> (__DefaultInterrupt)
                  0x000022          0x4 LONG 0x161c DEFINED (__T3Interrupt)?<code 336> (__T3Interrupt):<code 336> (__DefaultInterrupt)
                  0x000024          0x4 LONG 0x63ee DEFINED (__SPI1Interrupt)?<code 336> (__SPI1Interrupt):<code 336> (__DefaultInterrupt)
                  0x000026          0x4 LONG 0x63ee DEFINED (__U1RXInterrupt)?<code 336> (__U1RXInterrupt):<code 336> (__DefaultInterrupt)
                  0x000028          0x4 LONG 0x63ee DEFINED (__U1TXInterrupt)?<code 336> (__U1TXInterrupt):<code 336> (__DefaultInterrupt)
                  0x00002a          0x4 LONG 0x169a DEFINED (__ADCInterrupt)?<code 336> (__ADCInterrupt):<code 336> (__DefaultInterrupt)
                  0x00002c          0x4 LONG 0x63ee DEFINED (__NVMInterrupt)?<code 336> (__NVMInterrupt):<code 336> (__DefaultInterrupt)
                  0x00002e          0x4 LONG 0x63ee DEFINED (__SI2CInterrupt)?<code 336> (__SI2CInterrupt):<code 336> (__DefaultInterrupt)
                  0x000030          0x4 LONG 0x63ee DEFINED (__MI2CInterrupt)?<code 336> (__MI2CInterrupt):<code 336> (__DefaultInterrupt)
                  0x000032          0x4 LONG 0x63ee DEFINED (__CNInterrupt)?<code 336> (__CNInterrupt):<code 336> (__DefaultInterrupt)
                  0x000034          0x4 LONG 0xdce DEFINED (__INT1Interrupt)?<code 336> (__INT1Interrupt):<code 336> (__DefaultInterrupt)
                  0x000036          0x4 LONG 0x63ee DEFINED (__IC7Interrupt)?<code 336> (__IC7Interrupt):<code 336> (__DefaultInterrupt)
                  0x000038          0x4 LONG 0x63ee DEFINED (__IC8Interrupt)?<code 336> (__IC8Interrupt):<code 336> (__DefaultInterrupt)
                  0x00003a          0x4 LONG 0x63ee DEFINED (__OC3Interrupt)?<code 336> (__OC3Interrupt):<code 336> (__DefaultInterrupt)
                  0x00003c          0x4 LONG 0x63ee DEFINED (__OC4Interrupt)?<code 336> (__OC4Interrupt):<code 336> (__DefaultInterrupt)
                  0x00003e          0x4 LONG 0x163c DEFINED (__T4Interrupt)?<code 336> (__T4Interrupt):<code 336> (__DefaultInterrupt)
                  0x000040          0x4 LONG 0x162c DEFINED (__T5Interrupt)?<code 336> (__T5Interrupt):<code 336> (__DefaultInterrupt)
                  0x000042          0x4 LONG 0xdd6 DEFINED (__INT2Interrupt)?<code 336> (__INT2Interrupt):<code 336> (__DefaultInterrupt)
                  0x000044          0x4 LONG 0x63ee DEFINED (__U2RXInterrupt)?<code 336> (__U2RXInterrupt):<code 336> (__DefaultInterrupt)
                  0x000046          0x4 LONG 0x63ee DEFINED (__U2TXInterrupt)?<code 336> (__U2TXInterrupt):<code 336> (__DefaultInterrupt)
                  0x000048          0x4 LONG 0x18d8 DEFINED (__SPI2Interrupt)?<code 336> (__SPI2Interrupt):<code 336> (__DefaultInterrupt)
                  0x00004a          0x4 LONG 0x63ee DEFINED (__C1Interrupt)?<code 336> (__C1Interrupt):<code 336> (__DefaultInterrupt)
                  0x00004c          0x4 LONG 0x63ee DEFINED (__IC3Interrupt)?<code 336> (__IC3Interrupt):<code 336> (__DefaultInterrupt)
                  0x00004e          0x4 LONG 0x63ee DEFINED (__IC4Interrupt)?<code 336> (__IC4Interrupt):<code 336> (__DefaultInterrupt)
                  0x000050          0x4 LONG 0x63ee DEFINED (__IC5Interrupt)?<code 336> (__IC5Interrupt):<code 336> (__DefaultInterrupt)
                  0x000052          0x4 LONG 0x63ee DEFINED (__IC6Interrupt)?<code 336> (__IC6Interrupt):<code 336> (__DefaultInterrupt)
                  0x000054          0x4 LONG 0x63ee DEFINED (__OC5Interrupt)?<code 336> (__OC5Interrupt):<code 336> (__DefaultInterrupt)
                  0x000056          0x4 LONG 0x63ee DEFINED (__OC6Interrupt)?<code 336> (__OC6Interrupt):<code 336> (__DefaultInterrupt)
                  0x000058          0x4 LONG 0x63ee DEFINED (__OC7Interrupt)?<code 336> (__OC7Interrupt):<code 336> (__DefaultInterrupt)
                  0x00005a          0x4 LONG 0x63ee DEFINED (__OC8Interrupt)?<code 336> (__OC8Interrupt):<code 336> (__DefaultInterrupt)
                  0x00005c          0x4 LONG 0x63ee DEFINED (__INT3Interrupt)?<code 336> (__INT3Interrupt):<code 336> (__DefaultInterrupt)
                  0x00005e          0x4 LONG 0x63ee DEFINED (__INT4Interrupt)?<code 336> (__INT4Interrupt):<code 336> (__DefaultInterrupt)
                  0x000060          0x4 LONG 0x63ee DEFINED (__C2Interrupt)?<code 336> (__C2Interrupt):<code 336> (__DefaultInterrupt)
                  0x000062          0x4 LONG 0x63ee DEFINED (__PWMInterrupt)?<code 336> (__PWMInterrupt):<code 336> (__DefaultInterrupt)
                  0x000064          0x4 LONG 0x63ee DEFINED (__QEIInterrupt)?<code 336> (__QEIInterrupt):<code 336> (__DefaultInterrupt)
                  0x000066          0x4 LONG 0x63ee DEFINED (__DCIInterrupt)?<code 336> (__DCIInterrupt):<code 336> (__DefaultInterrupt)
                  0x000068          0x4 LONG 0x63ee DEFINED (__LVDInterrupt)?<code 336> (__LVDInterrupt):<code 336> (__DefaultInterrupt)
                  0x00006a          0x4 LONG 0x63ee DEFINED (__FLTAInterrupt)?<code 336> (__FLTAInterrupt):<code 336> (__DefaultInterrupt)
                  0x00006c          0x4 LONG 0x63ee DEFINED (__FLTBInterrupt)?<code 336> (__FLTBInterrupt):<code 336> (__DefaultInterrupt)
                  0x00006e          0x4 LONG 0x63ee DEFINED (__Interrupt45)?<code 336> (__Interrupt45):<code 336> (__DefaultInterrupt)
                  0x000070          0x4 LONG 0x63ee DEFINED (__Interrupt46)?<code 336> (__Interrupt46):<code 336> (__DefaultInterrupt)
                  0x000072          0x4 LONG 0x63ee DEFINED (__Interrupt47)?<code 336> (__Interrupt47):<code 336> (__DefaultInterrupt)
                  0x000074          0x4 LONG 0x63ee DEFINED (__Interrupt48)?<code 336> (__Interrupt48):<code 336> (__DefaultInterrupt)
                  0x000076          0x4 LONG 0x63ee DEFINED (__Interrupt49)?<code 336> (__Interrupt49):<code 336> (__DefaultInterrupt)
                  0x000078          0x4 LONG 0x63ee DEFINED (__Interrupt50)?<code 336> (__Interrupt50):<code 336> (__DefaultInterrupt)
                  0x00007a          0x4 LONG 0x63ee DEFINED (__Interrupt51)?<code 336> (__Interrupt51):<code 336> (__DefaultInterrupt)
                  0x00007c          0x4 LONG 0x63ee DEFINED (__Interrupt52)?<code 336> (__Interrupt52):<code 336> (__DefaultInterrupt)
                  0x00007e          0x4 LONG 0x63ee DEFINED (__Interrupt53)?<code 336> (__Interrupt53):<code 336> (__DefaultInterrupt)

.aivt             0x000084         0x7c
                  0x000084          0x4 LONG 0x63ee DEFINED (__AltReservedTrap0)?<code 336> (__AltReservedTrap0):DEFINED (__ReservedTrap0)?<code 336> (__ReservedTrap0):<code 336> (__DefaultInterrupt)
                  0x000086          0x4 LONG 0x63ee DEFINED (__AltOscillatorFail)?<code 336> (__AltOscillatorFail):DEFINED (__OscillatorFail)?<code 336> (__OscillatorFail):<code 336> (__DefaultInterrupt)
                  0x000088          0x4 LONG 0x63ee DEFINED (__AltAddressError)?<code 336> (__AltAddressError):DEFINED (__AddressError)?<code 336> (__AddressError):<code 336> (__DefaultInterrupt)
                  0x00008a          0x4 LONG 0x63ee DEFINED (__AltStackError)?<code 336> (__AltStackError):DEFINED (__StackError)?<code 336> (__StackError):<code 336> (__DefaultInterrupt)
                  0x00008c          0x4 LONG 0x63ee DEFINED (__AltMathError)?<code 336> (__AltMathError):DEFINED (__MathError)?<code 336> (__MathError):<code 336> (__DefaultInterrupt)
                  0x00008e          0x4 LONG 0x63ee DEFINED (__AltReservedTrap5)?<code 336> (__AltReservedTrap5):DEFINED (__ReservedTrap5)?<code 336> (__ReservedTrap5):<code 336> (__DefaultInterrupt)
                  0x000090          0x4 LONG 0x63ee DEFINED (__AltReservedTrap6)?<code 336> (__AltReservedTrap6):DEFINED (__ReservedTrap6)?<code 336> (__ReservedTrap6):<code 336> (__DefaultInterrupt)
                  0x000092          0x4 LONG 0x63ee DEFINED (__AltReservedTrap7)?<code 336> (__AltReservedTrap7):DEFINED (__ReservedTrap7)?<code 336> (__ReservedTrap7):<code 336> (__DefaultInterrupt)
                  0x000094          0x4 LONG 0x63ee DEFINED (__AltINT0Interrupt)?<code 336> (__AltINT0Interrupt):DEFINED (__INT0Interrupt)?<code 336> (__INT0Interrupt):<code 336> (__DefaultInterrupt)
                  0x000096          0x4 LONG 0x63ee DEFINED (__AltIC1Interrupt)?<code 336> (__AltIC1Interrupt):DEFINED (__IC1Interrupt)?<code 336> (__IC1Interrupt):<code 336> (__DefaultInterrupt)
                  0x000098          0x4 LONG 0x63ee DEFINED (__AltOC1Interrupt)?<code 336> (__AltOC1Interrupt):DEFINED (__OC1Interrupt)?<code 336> (__OC1Interrupt):<code 336> (__DefaultInterrupt)
                  0x00009a          0x4 LONG 0xdde DEFINED (__AltT1Interrupt)?<code 336> (__AltT1Interrupt):DEFINED (__T1Interrupt)?<code 336> (__T1Interrupt):<code 336> (__DefaultInterrupt)
                  0x00009c          0x4 LONG 0x63ee DEFINED (__AltIC2Interrupt)?<code 336> (__AltIC2Interrupt):DEFINED (__IC2Interrupt)?<code 336> (__IC2Interrupt):<code 336> (__DefaultInterrupt)
                  0x00009e          0x4 LONG 0x63ee DEFINED (__AltOC2Interrupt)?<code 336> (__AltOC2Interrupt):DEFINED (__OC2Interrupt)?<code 336> (__OC2Interrupt):<code 336> (__DefaultInterrupt)
                  0x0000a0          0x4 LONG 0x63ee DEFINED (__AltT2Interrupt)?<code 336> (__AltT2Interrupt):DEFINED (__T2Interrupt)?<code 336> (__T2Interrupt):<code 336> (__DefaultInterrupt)
                  0x0000a2          0x4 LONG 0x161c DEFINED (__AltT3Interrupt)?<code 336> (__AltT3Interrupt):DEFINED (__T3Interrupt)?<code 336> (__T3Interrupt):<code 336> (__DefaultInterrupt)
                  0x0000a4          0x4 LONG 0x63ee DEFINED (__AltSPI1Interrupt)?<code 336> (__AltSPI1Interrupt):DEFINED (__SPI1Interrupt)?<code 336> (__SPI1Interrupt):<code 336> (__DefaultInterrupt)
                  0x0000a6          0x4 LONG 0x63ee DEFINED (__AltU1RXInterrupt)?<code 336> (__AltU1RXInterrupt):DEFINED (__U1RXInterrupt)?<code 336> (__U1RXInterrupt):<code 336> (__DefaultInterrupt)
                  0x0000a8          0x4 LONG 0x63ee DEFINED (__AltU1TXInterrupt)?<code 336> (__AltU1TXInterrupt):DEFINED (__U1TXInterrupt)?<code 336> (__U1TXInterrupt):<code 336> (__DefaultInterrupt)
                  0x0000aa          0x4 LONG 0x169a DEFINED (__AltADCInterrupt)?<code 336> (__AltADCInterrupt):DEFINED (__ADCInterrupt)?<code 336> (__ADCInterrupt):<code 336> (__DefaultInterrupt)
                  0x0000ac          0x4 LONG 0x63ee DEFINED (__AltNVMInterrupt)?<code 336> (__AltNVMInterrupt):DEFINED (__NVMInterrupt)?<code 336> (__NVMInterrupt):<code 336> (__DefaultInterrupt)
                  0x0000ae          0x4 LONG 0x63ee DEFINED (__AltSI2CInterrupt)?<code 336> (__AltSI2CInterrupt):DEFINED (__SI2CInterrupt)?<code 336> (__SI2CInterrupt):<code 336> (__DefaultInterrupt)
                  0x0000b0          0x4 LONG 0x63ee DEFINED (__AltMI2CInterrupt)?<code 336> (__AltMI2CInterrupt):DEFINED (__MI2CInterrupt)?<code 336> (__MI2CInterrupt):<code 336> (__DefaultInterrupt)
                  0x0000b2          0x4 LONG 0x63ee DEFINED (__AltCNInterrupt)?<code 336> (__AltCNInterrupt):DEFINED (__CNInterrupt)?<code 336> (__CNInterrupt):<code 336> (__DefaultInterrupt)
                  0x0000b4          0x4 LONG 0xdce DEFINED (__AltINT1Interrupt)?<code 336> (__AltINT1Interrupt):DEFINED (__INT1Interrupt)?<code 336> (__INT1Interrupt):<code 336> (__DefaultInterrupt)
                  0x0000b6          0x4 LONG 0x63ee DEFINED (__AltIC7Interrupt)?<code 336> (__AltIC7Interrupt):DEFINED (__IC7Interrupt)?<code 336> (__IC7Interrupt):<code 336> (__DefaultInterrupt)
                  0x0000b8          0x4 LONG 0x63ee DEFINED (__AltIC8Interrupt)?<code 336> (__AltIC8Interrupt):DEFINED (__IC8Interrupt)?<code 336> (__IC8Interrupt):<code 336> (__DefaultInterrupt)
                  0x0000ba          0x4 LONG 0x63ee DEFINED (__AltOC3Interrupt)?<code 336> (__AltOC3Interrupt):DEFINED (__OC3Interrupt)?<code 336> (__OC3Interrupt):<code 336> (__DefaultInterrupt)
                  0x0000bc          0x4 LONG 0x63ee DEFINED (__AltOC4Interrupt)?<code 336> (__AltOC4Interrupt):DEFINED (__OC4Interrupt)?<code 336> (__OC4Interrupt):<code 336> (__DefaultInterrupt)
                  0x0000be          0x4 LONG 0x163c DEFINED (__AltT4Interrupt)?<code 336> (__AltT4Interrupt):DEFINED (__T4Interrupt)?<code 336> (__T4Interrupt):<code 336> (__DefaultInterrupt)
                  0x0000c0          0x4 LONG 0x162c DEFINED (__AltT5Interrupt)?<code 336> (__AltT5Interrupt):DEFINED (__T5Interrupt)?<code 336> (__T5Interrupt):<code 336> (__DefaultInterrupt)
                  0x0000c2          0x4 LONG 0xdd6 DEFINED (__AltINT2Interrupt)?<code 336> (__AltINT2Interrupt):DEFINED (__INT2Interrupt)?<code 336> (__INT2Interrupt):<code 336> (__DefaultInterrupt)
                  0x0000c4          0x4 LONG 0x63ee DEFINED (__AltU2RXInterrupt)?<code 336> (__AltU2RXInterrupt):DEFINED (__U2RXInterrupt)?<code 336> (__U2RXInterrupt):<code 336> (__DefaultInterrupt)
                  0x0000c6          0x4 LONG 0x63ee DEFINED (__AltU2TXInterrupt)?<code 336> (__AltU2TXInterrupt):DEFINED (__U2TXInterrupt)?<code 336> (__U2TXInterrupt):<code 336> (__DefaultInterrupt)
                  0x0000c8          0x4 LONG 0x18d8 DEFINED (__AltSPI2Interrupt)?<code 336> (__AltSPI2Interrupt):DEFINED (__SPI2Interrupt)?<code 336> (__SPI2Interrupt):<code 336> (__DefaultInterrupt)
                  0x0000ca          0x4 LONG 0x63ee DEFINED (__AltC1Interrupt)?<code 336> (__AltC1Interrupt):DEFINED (__C1Interrupt)?<code 336> (__C1Interrupt):<code 336> (__DefaultInterrupt)
                  0x0000cc          0x4 LONG 0x63ee DEFINED (__AltIC3Interrupt)?<code 336> (__AltIC3Interrupt):DEFINED (__IC3Interrupt)?<code 336> (__IC3Interrupt):<code 336> (__DefaultInterrupt)
                  0x0000ce          0x4 LONG 0x63ee DEFINED (__AltIC4Interrupt)?<code 336> (__AltIC4Interrupt):DEFINED (__IC4Interrupt)?<code 336> (__IC4Interrupt):<code 336> (__DefaultInterrupt)
                  0x0000d0          0x4 LONG 0x63ee DEFINED (__AltIC5Interrupt)?<code 336> (__AltIC5Interrupt):DEFINED (__IC5Interrupt)?<code 336> (__IC5Interrupt):<code 336> (__DefaultInterrupt)
                  0x0000d2          0x4 LONG 0x63ee DEFINED (__AltIC6Interrupt)?<code 336> (__AltIC6Interrupt):DEFINED (__IC6Interrupt)?<code 336> (__IC6Interrupt):<code 336> (__DefaultInterrupt)
                  0x0000d4          0x4 LONG 0x63ee DEFINED (__AltOC5Interrupt)?<code 336> (__AltOC5Interrupt):DEFINED (__OC5Interrupt)?<code 336> (__OC5Interrupt):<code 336> (__DefaultInterrupt)
                  0x0000d6          0x4 LONG 0x63ee DEFINED (__AltOC6Interrupt)?<code 336> (__AltOC6Interrupt):DEFINED (__OC6Interrupt)?<code 336> (__OC6Interrupt):<code 336> (__DefaultInterrupt)
                  0x0000d8          0x4 LONG 0x63ee DEFINED (__AltOC7Interrupt)?<code 336> (__AltOC7Interrupt):DEFINED (__OC7Interrupt)?<code 336> (__OC7Interrupt):<code 336> (__DefaultInterrupt)
                  0x0000da          0x4 LONG 0x63ee DEFINED (__AltOC8Interrupt)?<code 336> (__AltOC8Interrupt):DEFINED (__OC8Interrupt)?<code 336> (__OC8Interrupt):<code 336> (__DefaultInterrupt)
                  0x0000dc          0x4 LONG 0x63ee DEFINED (__AltINT3Interrupt)?<code 336> (__AltINT3Interrupt):DEFINED (__INT3Interrupt)?<code 336> (__INT3Interrupt):<code 336> (__DefaultInterrupt)
                  0x0000de          0x4 LONG 0x63ee DEFINED (__AltINT4Interrupt)?<code 336> (__AltINT4Interrupt):DEFINED (__INT4Interrupt)?<code 336> (__INT4Interrupt):<code 336> (__DefaultInterrupt)
                  0x0000e0          0x4 LONG 0x63ee DEFINED (__AltC2Interrupt)?<code 336> (__AltC2Interrupt):DEFINED (__C2Interrupt)?<code 336> (__C2Interrupt):<code 336> (__DefaultInterrupt)
                  0x0000e2          0x4 LONG 0x63ee DEFINED (__AltPWMInterrupt)?<code 336> (__AltPWMInterrupt):DEFINED (__PWMInterrupt)?<code 336> (__PWMInterrupt):<code 336> (__DefaultInterrupt)
                  0x0000e4          0x4 LONG 0x63ee DEFINED (__AltQEIInterrupt)?<code 336> (__AltQEIInterrupt):DEFINED (__QEIInterrupt)?<code 336> (__QEIInterrupt):<code 336> (__DefaultInterrupt)
                  0x0000e6          0x4 LONG 0x63ee DEFINED (__AltDCIInterrupt)?<code 336> (__AltDCIInterrupt):DEFINED (__DCIInterrupt)?<code 336> (__DCIInterrupt):<code 336> (__DefaultInterrupt)
                  0x0000e8          0x4 LONG 0x63ee DEFINED (__AltLVDInterrupt)?<code 336> (__AltLVDInterrupt):DEFINED (__LVDInterrupt)?<code 336> (__LVDInterrupt):<code 336> (__DefaultInterrupt)
                  0x0000ea          0x4 LONG 0x63ee DEFINED (__AltFLTAInterrupt)?<code 336> (__AltFLTAInterrupt):DEFINED (__FLTAInterrupt)?<code 336> (__FLTAInterrupt):<code 336> (__DefaultInterrupt)
                  0x0000ec          0x4 LONG 0x63ee DEFINED (__AltFLTBInterrupt)?<code 336> (__AltFLTBInterrupt):DEFINED (__FLTBInterrupt)?<code 336> (__FLTBInterrupt):<code 336> (__DefaultInterrupt)
                  0x0000ee          0x4 LONG 0x63ee DEFINED (__AltInterrupt45)?<code 336> (__AltInterrupt45):DEFINED (__Interrupt45)?<code 336> (__Interrupt45):<code 336> (__DefaultInterrupt)
                  0x0000f0          0x4 LONG 0x63ee DEFINED (__AltInterrupt46)?<code 336> (__AltInterrupt46):DEFINED (__Interrupt46)?<code 336> (__Interrupt46):<code 336> (__DefaultInterrupt)
                  0x0000f2          0x4 LONG 0x63ee DEFINED (__AltInterrupt47)?<code 336> (__AltInterrupt47):DEFINED (__Interrupt47)?<code 336> (__Interrupt47):<code 336> (__DefaultInterrupt)
                  0x0000f4          0x4 LONG 0x63ee DEFINED (__AltInterrupt48)?<code 336> (__AltInterrupt48):DEFINED (__Interrupt48)?<code 336> (__Interrupt48):<code 336> (__DefaultInterrupt)
                  0x0000f6          0x4 LONG 0x63ee DEFINED (__AltInterrupt49)?<code 336> (__AltInterrupt49):DEFINED (__Interrupt49)?<code 336> (__Interrupt49):<code 336> (__DefaultInterrupt)
                  0x0000f8          0x4 LONG 0x63ee DEFINED (__AltInterrupt50)?<code 336> (__AltInterrupt50):DEFINED (__Interrupt50)?<code 336> (__Interrupt50):<code 336> (__DefaultInterrupt)
                  0x0000fa          0x4 LONG 0x63ee DEFINED (__AltInterrupt51)?<code 336> (__AltInterrupt51):DEFINED (__Interrupt51)?<code 336> (__Interrupt51):<code 336> (__DefaultInterrupt)
                  0x0000fc          0x4 LONG 0x63ee DEFINED (__AltInterrupt52)?<code 336> (__AltInterrupt52):DEFINED (__Interrupt52)?<code 336> (__Interrupt52):<code 336> (__DefaultInterrupt)
                  0x0000fe          0x4 LONG 0x63ee DEFINED (__AltInterrupt53)?<code 336> (__AltInterrupt53):DEFINED (__Interrupt53)?<code 336> (__Interrupt53):<code 336> (__DefaultInterrupt)
                    0x0000                  WREG0 = 0x0
                    0x0000                  _WREG0 = 0x0
                    0x0002                  WREG1 = 0x2
                    0x0002                  _WREG1 = 0x2
                    0x0004                  WREG2 = 0x4
                    0x0004                  _WREG2 = 0x4
                    0x0006                  WREG3 = 0x6
                    0x0006                  _WREG3 = 0x6
                    0x0008                  WREG4 = 0x8
                    0x0008                  _WREG4 = 0x8
                    0x000a                  WREG5 = 0xa
                    0x000a                  _WREG5 = 0xa
                    0x000c                  WREG6 = 0xc
                    0x000c                  _WREG6 = 0xc
                    0x000e                  WREG7 = 0xe
                    0x000e                  _WREG7 = 0xe
                    0x0010                  WREG8 = 0x10
                    0x0010                  _WREG8 = 0x10
                    0x0012                  WREG9 = 0x12
                    0x0012                  _WREG9 = 0x12
                    0x0014                  WREG10 = 0x14
                    0x0014                  _WREG10 = 0x14
                    0x0016                  WREG11 = 0x16
                    0x0016                  _WREG11 = 0x16
                    0x0018                  WREG12 = 0x18
                    0x0018                  _WREG12 = 0x18
                    0x001a                  WREG13 = 0x1a
                    0x001a                  _WREG13 = 0x1a
                    0x001c                  WREG14 = 0x1c
                    0x001c                  _WREG14 = 0x1c
                    0x001e                  WREG15 = 0x1e
                    0x001e                  _WREG15 = 0x1e
                    0x0020                  SPLIM = 0x20
                    0x0020                  _SPLIM = 0x20
                    0x0022                  ACCAL = 0x22
                    0x0022                  _ACCAL = 0x22
                    0x0024                  ACCAH = 0x24
                    0x0024                  _ACCAH = 0x24
                    0x0026                  ACCAU = 0x26
                    0x0026                  _ACCAU = 0x26
                    0x0028                  ACCBL = 0x28
                    0x0028                  _ACCBL = 0x28
                    0x002a                  ACCBH = 0x2a
                    0x002a                  _ACCBH = 0x2a
                    0x002c                  ACCBU = 0x2c
                    0x002c                  _ACCBU = 0x2c
                    0x002e                  PCL = 0x2e
                    0x002e                  _PCL = 0x2e
                    0x0030                  PCH = 0x30
                    0x0030                  _PCH = 0x30
                    0x0032                  TBLPAG = 0x32
                    0x0032                  _TBLPAG = 0x32
                    0x0034                  PSVPAG = 0x34
                    0x0034                  _PSVPAG = 0x34
                    0x0036                  RCOUNT = 0x36
                    0x0036                  _RCOUNT = 0x36
                    0x0038                  DCOUNT = 0x38
                    0x0038                  _DCOUNT = 0x38
                    0x003a                  DOSTARTL = 0x3a
                    0x003a                  _DOSTARTL = 0x3a
                    0x003c                  DOSTARTH = 0x3c
                    0x003c                  _DOSTARTH = 0x3c
                    0x003e                  DOENDL = 0x3e
                    0x003e                  _DOENDL = 0x3e
                    0x0040                  DOENDH = 0x40
                    0x0040                  _DOENDH = 0x40
                    0x0042                  SR = 0x42
                    0x0042                  _SR = 0x42
                    0x0044                  CORCON = 0x44
                    0x0044                  _CORCON = 0x44
                    0x0046                  MODCON = 0x46
                    0x0046                  _MODCON = 0x46
                    0x0048                  XMODSRT = 0x48
                    0x0048                  _XMODSRT = 0x48
                    0x004a                  XMODEND = 0x4a
                    0x004a                  _XMODEND = 0x4a
                    0x004c                  YMODSRT = 0x4c
                    0x004c                  _YMODSRT = 0x4c
                    0x004e                  YMODEND = 0x4e
                    0x004e                  _YMODEND = 0x4e
                    0x0050                  XBREV = 0x50
                    0x0050                  _XBREV = 0x50
                    0x0052                  DISICNT = 0x52
                    0x0052                  _DISICNT = 0x52
                    0x0080                  INTCON1 = 0x80
                    0x0080                  _INTCON1 = 0x80
                    0x0082                  INTCON2 = 0x82
                    0x0082                  _INTCON2 = 0x82
                    0x0084                  IFS0 = 0x84
                    0x0084                  _IFS0 = 0x84
                    0x0086                  IFS1 = 0x86
                    0x0086                  _IFS1 = 0x86
                    0x0088                  IFS2 = 0x88
                    0x0088                  _IFS2 = 0x88
                    0x008c                  IEC0 = 0x8c
                    0x008c                  _IEC0 = 0x8c
                    0x008e                  IEC1 = 0x8e
                    0x008e                  _IEC1 = 0x8e
                    0x0090                  IEC2 = 0x90
                    0x0090                  _IEC2 = 0x90
                    0x0094                  IPC0 = 0x94
                    0x0094                  _IPC0 = 0x94
                    0x0096                  IPC1 = 0x96
                    0x0096                  _IPC1 = 0x96
                    0x0098                  IPC2 = 0x98
                    0x0098                  _IPC2 = 0x98
                    0x009a                  IPC3 = 0x9a
                    0x009a                  _IPC3 = 0x9a
                    0x009c                  IPC4 = 0x9c
                    0x009c                  _IPC4 = 0x9c
                    0x009e                  IPC5 = 0x9e
                    0x009e                  _IPC5 = 0x9e
                    0x00a0                  IPC6 = 0xa0
                    0x00a0                  _IPC6 = 0xa0
                    0x00a2                  IPC7 = 0xa2
                    0x00a2                  _IPC7 = 0xa2
                    0x00a4                  IPC8 = 0xa4
                    0x00a4                  _IPC8 = 0xa4
                    0x00a6                  IPC9 = 0xa6
                    0x00a6                  _IPC9 = 0xa6
                    0x00a8                  IPC10 = 0xa8
                    0x00a8                  _IPC10 = 0xa8
                    0x00b0                  INTTREG = 0xb0
                    0x00b0                  _INTTREG = 0xb0
                    0x00c0                  CNEN1 = 0xc0
                    0x00c0                  _CNEN1 = 0xc0
                    0x00c2                  CNEN2 = 0xc2
                    0x00c2                  _CNEN2 = 0xc2
                    0x00c4                  CNPU1 = 0xc4
                    0x00c4                  _CNPU1 = 0xc4
                    0x00c6                  CNPU2 = 0xc6
                    0x00c6                  _CNPU2 = 0xc6
                    0x0100                  TMR1 = 0x100
                    0x0100                  _TMR1 = 0x100
                    0x0102                  PR1 = 0x102
                    0x0102                  _PR1 = 0x102
                    0x0104                  T1CON = 0x104
                    0x0104                  _T1CON = 0x104
                    0x0106                  TMR2 = 0x106
                    0x0106                  _TMR2 = 0x106
                    0x0108                  TMR3HLD = 0x108
                    0x0108                  _TMR3HLD = 0x108
                    0x010a                  TMR3 = 0x10a
                    0x010a                  _TMR3 = 0x10a
                    0x010c                  PR2 = 0x10c
                    0x010c                  _PR2 = 0x10c
                    0x010e                  PR3 = 0x10e
                    0x010e                  _PR3 = 0x10e
                    0x0110                  T2CON = 0x110
                    0x0110                  _T2CON = 0x110
                    0x0112                  T3CON = 0x112
                    0x0112                  _T3CON = 0x112
                    0x0114                  TMR4 = 0x114
                    0x0114                  _TMR4 = 0x114
                    0x0116                  TMR5HLD = 0x116
                    0x0116                  _TMR5HLD = 0x116
                    0x0118                  TMR5 = 0x118
                    0x0118                  _TMR5 = 0x118
                    0x011a                  PR4 = 0x11a
                    0x011a                  _PR4 = 0x11a
                    0x011c                  PR5 = 0x11c
                    0x011c                  _PR5 = 0x11c
                    0x011e                  T4CON = 0x11e
                    0x011e                  _T4CON = 0x11e
                    0x0120                  T5CON = 0x120
                    0x0120                  _T5CON = 0x120
                    0x0140                  IC1BUF = 0x140
                    0x0140                  _IC1BUF = 0x140
                    0x0142                  IC1CON = 0x142
                    0x0142                  _IC1CON = 0x142
                    0x0144                  IC2BUF = 0x144
                    0x0144                  _IC2BUF = 0x144
                    0x0146                  IC2CON = 0x146
                    0x0146                  _IC2CON = 0x146
                    0x0148                  IC3BUF = 0x148
                    0x0148                  _IC3BUF = 0x148
                    0x014a                  IC3CON = 0x14a
                    0x014a                  _IC3CON = 0x14a
                    0x014c                  IC4BUF = 0x14c
                    0x014c                  _IC4BUF = 0x14c
                    0x014e                  IC4CON = 0x14e
                    0x014e                  _IC4CON = 0x14e
                    0x0150                  IC5BUF = 0x150
                    0x0150                  _IC5BUF = 0x150
                    0x0152                  IC5CON = 0x152
                    0x0152                  _IC5CON = 0x152
                    0x0154                  IC6BUF = 0x154
                    0x0154                  _IC6BUF = 0x154
                    0x0156                  IC6CON = 0x156
                    0x0156                  _IC6CON = 0x156
                    0x0158                  IC7BUF = 0x158
                    0x0158                  _IC7BUF = 0x158
                    0x015a                  IC7CON = 0x15a
                    0x015a                  _IC7CON = 0x15a
                    0x015c                  IC8BUF = 0x15c
                    0x015c                  _IC8BUF = 0x15c
                    0x015e                  IC8CON = 0x15e
                    0x015e                  _IC8CON = 0x15e
                    0x0180                  OC1RS = 0x180
                    0x0180                  _OC1RS = 0x180
                    0x0182                  OC1R = 0x182
                    0x0182                  _OC1R = 0x182
                    0x0184                  OC1CON = 0x184
                    0x0184                  _OC1CON = 0x184
                    0x0186                  OC2RS = 0x186
                    0x0186                  _OC2RS = 0x186
                    0x0188                  OC2R = 0x188
                    0x0188                  _OC2R = 0x188
                    0x018a                  OC2CON = 0x18a
                    0x018a                  _OC2CON = 0x18a
                    0x018c                  OC3RS = 0x18c
                    0x018c                  _OC3RS = 0x18c
                    0x018e                  OC3R = 0x18e
                    0x018e                  _OC3R = 0x18e
                    0x0190                  OC3CON = 0x190
                    0x0190                  _OC3CON = 0x190
                    0x0192                  OC4RS = 0x192
                    0x0192                  _OC4RS = 0x192
                    0x0194                  OC4R = 0x194
                    0x0194                  _OC4R = 0x194
                    0x0196                  OC4CON = 0x196
                    0x0196                  _OC4CON = 0x196
                    0x0198                  OC5RS = 0x198
                    0x0198                  _OC5RS = 0x198
                    0x019a                  OC5R = 0x19a
                    0x019a                  _OC5R = 0x19a
                    0x019c                  OC5CON = 0x19c
                    0x019c                  _OC5CON = 0x19c
                    0x019e                  OC6RS = 0x19e
                    0x019e                  _OC6RS = 0x19e
                    0x01a0                  OC6R = 0x1a0
                    0x01a0                  _OC6R = 0x1a0
                    0x01a2                  OC6CON = 0x1a2
                    0x01a2                  _OC6CON = 0x1a2
                    0x01a4                  OC7RS = 0x1a4
                    0x01a4                  _OC7RS = 0x1a4
                    0x01a6                  OC7R = 0x1a6
                    0x01a6                  _OC7R = 0x1a6
                    0x01a8                  OC7CON = 0x1a8
                    0x01a8                  _OC7CON = 0x1a8
                    0x01aa                  OC8RS = 0x1aa
                    0x01aa                  _OC8RS = 0x1aa
                    0x01ac                  OC8R = 0x1ac
                    0x01ac                  _OC8R = 0x1ac
                    0x01ae                  OC8CON = 0x1ae
                    0x01ae                  _OC8CON = 0x1ae
                    0x0200                  I2CRCV = 0x200
                    0x0200                  _I2CRCV = 0x200
                    0x0202                  I2CTRN = 0x202
                    0x0202                  _I2CTRN = 0x202
                    0x0204                  I2CBRG = 0x204
                    0x0204                  _I2CBRG = 0x204
                    0x0206                  I2CCON = 0x206
                    0x0206                  _I2CCON = 0x206
                    0x0208                  I2CSTAT = 0x208
                    0x0208                  _I2CSTAT = 0x208
                    0x020a                  I2CADD = 0x20a
                    0x020a                  _I2CADD = 0x20a
                    0x020c                  U1MODE = 0x20c
                    0x020c                  _U1MODE = 0x20c
                    0x020e                  U1STA = 0x20e
                    0x020e                  _U1STA = 0x20e
                    0x0210                  U1TXREG = 0x210
                    0x0210                  _U1TXREG = 0x210
                    0x0212                  U1RXREG = 0x212
                    0x0212                  _U1RXREG = 0x212
                    0x0214                  U1BRG = 0x214
                    0x0214                  _U1BRG = 0x214
                    0x0216                  U2MODE = 0x216
                    0x0216                  _U2MODE = 0x216
                    0x0218                  U2STA = 0x218
                    0x0218                  _U2STA = 0x218
                    0x021a                  U2TXREG = 0x21a
                    0x021a                  _U2TXREG = 0x21a
                    0x021c                  U2RXREG = 0x21c
                    0x021c                  _U2RXREG = 0x21c
                    0x021e                  U2BRG = 0x21e
                    0x021e                  _U2BRG = 0x21e
                    0x0220                  SPI1STAT = 0x220
                    0x0220                  _SPI1STAT = 0x220
                    0x0222                  SPI1CON = 0x222
                    0x0222                  _SPI1CON = 0x222
                    0x0224                  SPI1BUF = 0x224
                    0x0224                  _SPI1BUF = 0x224
                    0x0226                  SPI2STAT = 0x226
                    0x0226                  _SPI2STAT = 0x226
                    0x0228                  SPI2CON = 0x228
                    0x0228                  _SPI2CON = 0x228
                    0x022a                  SPI2BUF = 0x22a
                    0x022a                  _SPI2BUF = 0x22a
                    0x0240                  DCICON1 = 0x240
                    0x0240                  _DCICON1 = 0x240
                    0x0242                  DCICON2 = 0x242
                    0x0242                  _DCICON2 = 0x242
                    0x0244                  DCICON3 = 0x244
                    0x0244                  _DCICON3 = 0x244
                    0x0246                  DCISTAT = 0x246
                    0x0246                  _DCISTAT = 0x246
                    0x0248                  TSCON = 0x248
                    0x0248                  _TSCON = 0x248
                    0x024c                  RSCON = 0x24c
                    0x024c                  _RSCON = 0x24c
                    0x0250                  RXBUF0 = 0x250
                    0x0250                  _RXBUF0 = 0x250
                    0x0252                  RXBUF1 = 0x252
                    0x0252                  _RXBUF1 = 0x252
                    0x0254                  RXBUF2 = 0x254
                    0x0254                  _RXBUF2 = 0x254
                    0x0256                  RXBUF3 = 0x256
                    0x0256                  _RXBUF3 = 0x256
                    0x0258                  TXBUF0 = 0x258
                    0x0258                  _TXBUF0 = 0x258
                    0x025a                  TXBUF1 = 0x25a
                    0x025a                  _TXBUF1 = 0x25a
                    0x025c                  TXBUF2 = 0x25c
                    0x025c                  _TXBUF2 = 0x25c
                    0x025e                  TXBUF3 = 0x25e
                    0x025e                  _TXBUF3 = 0x25e
                    0x0280                  ADCBUF0 = 0x280
                    0x0280                  _ADCBUF0 = 0x280
                    0x0282                  ADCBUF1 = 0x282
                    0x0282                  _ADCBUF1 = 0x282
                    0x0284                  ADCBUF2 = 0x284
                    0x0284                  _ADCBUF2 = 0x284
                    0x0286                  ADCBUF3 = 0x286
                    0x0286                  _ADCBUF3 = 0x286
                    0x0288                  ADCBUF4 = 0x288
                    0x0288                  _ADCBUF4 = 0x288
                    0x028a                  ADCBUF5 = 0x28a
                    0x028a                  _ADCBUF5 = 0x28a
                    0x028c                  ADCBUF6 = 0x28c
                    0x028c                  _ADCBUF6 = 0x28c
                    0x028e                  ADCBUF7 = 0x28e
                    0x028e                  _ADCBUF7 = 0x28e
                    0x0290                  ADCBUF8 = 0x290
                    0x0290                  _ADCBUF8 = 0x290
                    0x0292                  ADCBUF9 = 0x292
                    0x0292                  _ADCBUF9 = 0x292
                    0x0294                  ADCBUFA = 0x294
                    0x0294                  _ADCBUFA = 0x294
                    0x0296                  ADCBUFB = 0x296
                    0x0296                  _ADCBUFB = 0x296
                    0x0298                  ADCBUFC = 0x298
                    0x0298                  _ADCBUFC = 0x298
                    0x029a                  ADCBUFD = 0x29a
                    0x029a                  _ADCBUFD = 0x29a
                    0x029c                  ADCBUFE = 0x29c
                    0x029c                  _ADCBUFE = 0x29c
                    0x029e                  ADCBUFF = 0x29e
                    0x029e                  _ADCBUFF = 0x29e
                    0x02a0                  ADCON1 = 0x2a0
                    0x02a0                  _ADCON1 = 0x2a0
                    0x02a2                  ADCON2 = 0x2a2
                    0x02a2                  _ADCON2 = 0x2a2
                    0x02a4                  ADCON3 = 0x2a4
                    0x02a4                  _ADCON3 = 0x2a4
                    0x02a6                  ADCHS = 0x2a6
                    0x02a6                  _ADCHS = 0x2a6
                    0x02a8                  ADPCFG = 0x2a8
                    0x02a8                  _ADPCFG = 0x2a8
                    0x02aa                  ADCSSL = 0x2aa
                    0x02aa                  _ADCSSL = 0x2aa
                    0x02c0                  TRISA = 0x2c0
                    0x02c0                  _TRISA = 0x2c0
                    0x02c2                  PORTA = 0x2c2
                    0x02c2                  _PORTA = 0x2c2
                    0x02c4                  LATA = 0x2c4
                    0x02c4                  _LATA = 0x2c4
                    0x02c6                  TRISB = 0x2c6
                    0x02c6                  _TRISB = 0x2c6
                    0x02c8                  PORTB = 0x2c8
                    0x02c8                  _PORTB = 0x2c8
                    0x02ca                  LATB = 0x2ca
                    0x02ca                  _LATB = 0x2ca
                    0x02cc                  TRISC = 0x2cc
                    0x02cc                  _TRISC = 0x2cc
                    0x02ce                  PORTC = 0x2ce
                    0x02ce                  _PORTC = 0x2ce
                    0x02d0                  LATC = 0x2d0
                    0x02d0                  _LATC = 0x2d0
                    0x02d2                  TRISD = 0x2d2
                    0x02d2                  _TRISD = 0x2d2
                    0x02d4                  PORTD = 0x2d4
                    0x02d4                  _PORTD = 0x2d4
                    0x02d6                  LATD = 0x2d6
                    0x02d6                  _LATD = 0x2d6
                    0x02de                  TRISF = 0x2de
                    0x02de                  _TRISF = 0x2de
                    0x02e0                  PORTF = 0x2e0
                    0x02e0                  _PORTF = 0x2e0
                    0x02e2                  LATF = 0x2e2
                    0x02e2                  _LATF = 0x2e2
                    0x02e4                  TRISG = 0x2e4
                    0x02e4                  _TRISG = 0x2e4
                    0x02e6                  PORTG = 0x2e6
                    0x02e6                  _PORTG = 0x2e6
                    0x02e8                  LATG = 0x2e8
                    0x02e8                  _LATG = 0x2e8
                    0x0300                  C1RXF0SID = 0x300
                    0x0300                  _C1RXF0SID = 0x300
                    0x0302                  C1RXF0EIDH = 0x302
                    0x0302                  _C1RXF0EIDH = 0x302
                    0x0304                  C1RXF0EIDL = 0x304
                    0x0304                  _C1RXF0EIDL = 0x304
                    0x0308                  C1RXF1SID = 0x308
                    0x0308                  _C1RXF1SID = 0x308
                    0x030a                  C1RXF1EIDH = 0x30a
                    0x030a                  _C1RXF1EIDH = 0x30a
                    0x030c                  C1RXF1EIDL = 0x30c
                    0x030c                  _C1RXF1EIDL = 0x30c
                    0x0310                  C1RXF2SID = 0x310
                    0x0310                  _C1RXF2SID = 0x310
                    0x0312                  C1RXF2EIDH = 0x312
                    0x0312                  _C1RXF2EIDH = 0x312
                    0x0314                  C1RXF2EIDL = 0x314
                    0x0314                  _C1RXF2EIDL = 0x314
                    0x0318                  C1RXF3SID = 0x318
                    0x0318                  _C1RXF3SID = 0x318
                    0x031a                  C1RXF3EIDH = 0x31a
                    0x031a                  _C1RXF3EIDH = 0x31a
                    0x031c                  C1RXF3EIDL = 0x31c
                    0x031c                  _C1RXF3EIDL = 0x31c
                    0x0320                  C1RXF4SID = 0x320
                    0x0320                  _C1RXF4SID = 0x320
                    0x0322                  C1RXF4EIDH = 0x322
                    0x0322                  _C1RXF4EIDH = 0x322
                    0x0324                  C1RXF4EIDL = 0x324
                    0x0324                  _C1RXF4EIDL = 0x324
                    0x0328                  C1RXF5SID = 0x328
                    0x0328                  _C1RXF5SID = 0x328
                    0x032a                  C1RXF5EIDH = 0x32a
                    0x032a                  _C1RXF5EIDH = 0x32a
                    0x032c                  C1RXF5EIDL = 0x32c
                    0x032c                  _C1RXF5EIDL = 0x32c
                    0x0330                  C1RXM0SID = 0x330
                    0x0330                  _C1RXM0SID = 0x330
                    0x0332                  C1RXM0EIDH = 0x332
                    0x0332                  _C1RXM0EIDH = 0x332
                    0x0334                  C1RXM0EIDL = 0x334
                    0x0334                  _C1RXM0EIDL = 0x334
                    0x0338                  C1RXM1SID = 0x338
                    0x0338                  _C1RXM1SID = 0x338
                    0x033a                  C1RXM1EIDH = 0x33a
                    0x033a                  _C1RXM1EIDH = 0x33a
                    0x033c                  C1RXM1EIDL = 0x33c
                    0x033c                  _C1RXM1EIDL = 0x33c
                    0x0340                  C1TX2SID = 0x340
                    0x0340                  _C1TX2SID = 0x340
                    0x0342                  C1TX2EID = 0x342
                    0x0342                  _C1TX2EID = 0x342
                    0x0344                  C1TX2DLC = 0x344
                    0x0344                  _C1TX2DLC = 0x344
                    0x0346                  C1TX2B1 = 0x346
                    0x0346                  _C1TX2B1 = 0x346
                    0x0348                  C1TX2B2 = 0x348
                    0x0348                  _C1TX2B2 = 0x348
                    0x034a                  C1TX2B3 = 0x34a
                    0x034a                  _C1TX2B3 = 0x34a
                    0x034c                  C1TX2B4 = 0x34c
                    0x034c                  _C1TX2B4 = 0x34c
                    0x034e                  C1TX2CON = 0x34e
                    0x034e                  _C1TX2CON = 0x34e
                    0x0350                  C1TX1SID = 0x350
                    0x0350                  _C1TX1SID = 0x350
                    0x0352                  C1TX1EID = 0x352
                    0x0352                  _C1TX1EID = 0x352
                    0x0354                  C1TX1DLC = 0x354
                    0x0354                  _C1TX1DLC = 0x354
                    0x0356                  C1TX1B1 = 0x356
                    0x0356                  _C1TX1B1 = 0x356
                    0x0358                  C1TX1B2 = 0x358
                    0x0358                  _C1TX1B2 = 0x358
                    0x035a                  C1TX1B3 = 0x35a
                    0x035a                  _C1TX1B3 = 0x35a
                    0x035c                  C1TX1B4 = 0x35c
                    0x035c                  _C1TX1B4 = 0x35c
                    0x035e                  C1TX1CON = 0x35e
                    0x035e                  _C1TX1CON = 0x35e
                    0x0360                  C1TX0SID = 0x360
                    0x0360                  _C1TX0SID = 0x360
                    0x0362                  C1TX0EID = 0x362
                    0x0362                  _C1TX0EID = 0x362
                    0x0364                  C1TX0DLC = 0x364
                    0x0364                  _C1TX0DLC = 0x364
                    0x0366                  C1TX0B1 = 0x366
                    0x0366                  _C1TX0B1 = 0x366
                    0x0368                  C1TX0B2 = 0x368
                    0x0368                  _C1TX0B2 = 0x368
                    0x036a                  C1TX0B3 = 0x36a
                    0x036a                  _C1TX0B3 = 0x36a
                    0x036c                  C1TX0B4 = 0x36c
                    0x036c                  _C1TX0B4 = 0x36c
                    0x036e                  C1TX0CON = 0x36e
                    0x036e                  _C1TX0CON = 0x36e
                    0x0370                  C1RX1SID = 0x370
                    0x0370                  _C1RX1SID = 0x370
                    0x0372                  C1RX1EID = 0x372
                    0x0372                  _C1RX1EID = 0x372
                    0x0374                  C1RX1DLC = 0x374
                    0x0374                  _C1RX1DLC = 0x374
                    0x0376                  C1RX1B1 = 0x376
                    0x0376                  _C1RX1B1 = 0x376
                    0x0378                  C1RX1B2 = 0x378
                    0x0378                  _C1RX1B2 = 0x378
                    0x037a                  C1RX1B3 = 0x37a
                    0x037a                  _C1RX1B3 = 0x37a
                    0x037c                  C1RX1B4 = 0x37c
                    0x037c                  _C1RX1B4 = 0x37c
                    0x037e                  C1RX1CON = 0x37e
                    0x037e                  _C1RX1CON = 0x37e
                    0x0380                  C1RX0SID = 0x380
                    0x0380                  _C1RX0SID = 0x380
                    0x0382                  C1RX0EID = 0x382
                    0x0382                  _C1RX0EID = 0x382
                    0x0384                  C1RX0DLC = 0x384
                    0x0384                  _C1RX0DLC = 0x384
                    0x0386                  C1RX0B1 = 0x386
                    0x0386                  _C1RX0B1 = 0x386
                    0x0388                  C1RX0B2 = 0x388
                    0x0388                  _C1RX0B2 = 0x388
                    0x038a                  C1RX0B3 = 0x38a
                    0x038a                  _C1RX0B3 = 0x38a
                    0x038c                  C1RX0B4 = 0x38c
                    0x038c                  _C1RX0B4 = 0x38c
                    0x038e                  C1RX0CON = 0x38e
                    0x038e                  _C1RX0CON = 0x38e
                    0x0390                  C1CTRL = 0x390
                    0x0390                  _C1CTRL = 0x390
                    0x0392                  C1CFG1 = 0x392
                    0x0392                  _C1CFG1 = 0x392
                    0x0394                  C1CFG2 = 0x394
                    0x0394                  _C1CFG2 = 0x394
                    0x0396                  C1INTF = 0x396
                    0x0396                  _C1INTF = 0x396
                    0x0398                  C1INTE = 0x398
                    0x0398                  _C1INTE = 0x398
                    0x039a                  C1EC = 0x39a
                    0x039a                  _C1EC = 0x39a
                    0x039a                  C1RERRCNT = 0x39a
                    0x039a                  _C1RERRCNT = 0x39a
                    0x039b                  C1TERRCNT = 0x39b
                    0x039b                  _C1TERRCNT = 0x39b
                    0x03c0                  C2RXF0SID = 0x3c0
                    0x03c0                  _C2RXF0SID = 0x3c0
                    0x03c2                  C2RXF0EIDH = 0x3c2
                    0x03c2                  _C2RXF0EIDH = 0x3c2
                    0x03c4                  C2RXF0EIDL = 0x3c4
                    0x03c4                  _C2RXF0EIDL = 0x3c4
                    0x03c8                  C2RXF1SID = 0x3c8
                    0x03c8                  _C2RXF1SID = 0x3c8
                    0x03ca                  C2RXF1EIDH = 0x3ca
                    0x03ca                  _C2RXF1EIDH = 0x3ca
                    0x03cc                  C2RXF1EIDL = 0x3cc
                    0x03cc                  _C2RXF1EIDL = 0x3cc
                    0x03d0                  C2RXF2SID = 0x3d0
                    0x03d0                  _C2RXF2SID = 0x3d0
                    0x03d2                  C2RXF2EIDH = 0x3d2
                    0x03d2                  _C2RXF2EIDH = 0x3d2
                    0x03d4                  C2RXF2EIDL = 0x3d4
                    0x03d4                  _C2RXF2EIDL = 0x3d4
                    0x03d8                  C2RXF3SID = 0x3d8
                    0x03d8                  _C2RXF3SID = 0x3d8
                    0x03da                  C2RXF3EIDH = 0x3da
                    0x03da                  _C2RXF3EIDH = 0x3da
                    0x03dc                  C2RXF3EIDL = 0x3dc
                    0x03dc                  _C2RXF3EIDL = 0x3dc
                    0x03e0                  C2RXF4SID = 0x3e0
                    0x03e0                  _C2RXF4SID = 0x3e0
                    0x03e2                  C2RXF4EIDH = 0x3e2
                    0x03e2                  _C2RXF4EIDH = 0x3e2
                    0x03e4                  C2RXF4EIDL = 0x3e4
                    0x03e4                  _C2RXF4EIDL = 0x3e4
                    0x03e8                  C2RXF5SID = 0x3e8
                    0x03e8                  _C2RXF5SID = 0x3e8
                    0x03ea                  C2RXF5EIDH = 0x3ea
                    0x03ea                  _C2RXF5EIDH = 0x3ea
                    0x03ec                  C2RXF5EIDL = 0x3ec
                    0x03ec                  _C2RXF5EIDL = 0x3ec
                    0x03f0                  C2RXM0SID = 0x3f0
                    0x03f0                  _C2RXM0SID = 0x3f0
                    0x03f2                  C2RXM0EIDH = 0x3f2
                    0x03f2                  _C2RXM0EIDH = 0x3f2
                    0x03f4                  C2RXM0EIDL = 0x3f4
                    0x03f4                  _C2RXM0EIDL = 0x3f4
                    0x03f8                  C2RXM1SID = 0x3f8
                    0x03f8                  _C2RXM1SID = 0x3f8
                    0x03fa                  C2RXM1EIDH = 0x3fa
                    0x03fa                  _C2RXM1EIDH = 0x3fa
                    0x03fc                  C2RXM1EIDL = 0x3fc
                    0x03fc                  _C2RXM1EIDL = 0x3fc
                    0x0400                  C2TX2SID = 0x400
                    0x0400                  _C2TX2SID = 0x400
                    0x0402                  C2TX2EID = 0x402
                    0x0402                  _C2TX2EID = 0x402
                    0x0404                  C2TX2DLC = 0x404
                    0x0404                  _C2TX2DLC = 0x404
                    0x0406                  C2TX2B1 = 0x406
                    0x0406                  _C2TX2B1 = 0x406
                    0x0408                  C2TX2B2 = 0x408
                    0x0408                  _C2TX2B2 = 0x408
                    0x040a                  C2TX2B3 = 0x40a
                    0x040a                  _C2TX2B3 = 0x40a
                    0x040c                  C2TX2B4 = 0x40c
                    0x040c                  _C2TX2B4 = 0x40c
                    0x040e                  C2TX2CON = 0x40e
                    0x040e                  _C2TX2CON = 0x40e
                    0x0410                  C2TX1SID = 0x410
                    0x0410                  _C2TX1SID = 0x410
                    0x0412                  C2TX1EID = 0x412
                    0x0412                  _C2TX1EID = 0x412
                    0x0414                  C2TX1DLC = 0x414
                    0x0414                  _C2TX1DLC = 0x414
                    0x0416                  C2TX1B1 = 0x416
                    0x0416                  _C2TX1B1 = 0x416
                    0x0418                  C2TX1B2 = 0x418
                    0x0418                  _C2TX1B2 = 0x418
                    0x041a                  C2TX1B3 = 0x41a
                    0x041a                  _C2TX1B3 = 0x41a
                    0x041c                  C2TX1B4 = 0x41c
                    0x041c                  _C2TX1B4 = 0x41c
                    0x041e                  C2TX1CON = 0x41e
                    0x041e                  _C2TX1CON = 0x41e
                    0x0420                  C2TX0SID = 0x420
                    0x0420                  _C2TX0SID = 0x420
                    0x0422                  C2TX0EID = 0x422
                    0x0422                  _C2TX0EID = 0x422
                    0x0424                  C2TX0DLC = 0x424
                    0x0424                  _C2TX0DLC = 0x424
                    0x0426                  C2TX0B1 = 0x426
                    0x0426                  _C2TX0B1 = 0x426
                    0x0428                  C2TX0B2 = 0x428
                    0x0428                  _C2TX0B2 = 0x428
                    0x042a                  C2TX0B3 = 0x42a
                    0x042a                  _C2TX0B3 = 0x42a
                    0x042c                  C2TX0B4 = 0x42c
                    0x042c                  _C2TX0B4 = 0x42c
                    0x042e                  C2TX0CON = 0x42e
                    0x042e                  _C2TX0CON = 0x42e
                    0x0430                  C2RX1SID = 0x430
                    0x0430                  _C2RX1SID = 0x430
                    0x0432                  C2RX1EID = 0x432
                    0x0432                  _C2RX1EID = 0x432
                    0x0434                  C2RX1DLC = 0x434
                    0x0434                  _C2RX1DLC = 0x434
                    0x0436                  C2RX1B1 = 0x436
                    0x0436                  _C2RX1B1 = 0x436
                    0x0438                  C2RX1B2 = 0x438
                    0x0438                  _C2RX1B2 = 0x438
                    0x043a                  C2RX1B3 = 0x43a
                    0x043a                  _C2RX1B3 = 0x43a
                    0x043c                  C2RX1B4 = 0x43c
                    0x043c                  _C2RX1B4 = 0x43c
                    0x043e                  C2RX1CON = 0x43e
                    0x043e                  _C2RX1CON = 0x43e
                    0x0440                  C2RX0SID = 0x440
                    0x0440                  _C2RX0SID = 0x440
                    0x0442                  C2RX0EID = 0x442
                    0x0442                  _C2RX0EID = 0x442
                    0x0444                  C2RX0DLC = 0x444
                    0x0444                  _C2RX0DLC = 0x444
                    0x0446                  C2RX0B1 = 0x446
                    0x0446                  _C2RX0B1 = 0x446
                    0x0448                  C2RX0B2 = 0x448
                    0x0448                  _C2RX0B2 = 0x448
                    0x044a                  C2RX0B3 = 0x44a
                    0x044a                  _C2RX0B3 = 0x44a
                    0x044c                  C2RX0B4 = 0x44c
                    0x044c                  _C2RX0B4 = 0x44c
                    0x044e                  C2RX0CON = 0x44e
                    0x044e                  _C2RX0CON = 0x44e
                    0x0450                  C2CTRL = 0x450
                    0x0450                  _C2CTRL = 0x450
                    0x0452                  C2CFG1 = 0x452
                    0x0452                  _C2CFG1 = 0x452
                    0x0454                  C2CFG2 = 0x454
                    0x0454                  _C2CFG2 = 0x454
                    0x0456                  C2INTF = 0x456
                    0x0456                  _C2INTF = 0x456
                    0x0458                  C2INTE = 0x458
                    0x0458                  _C2INTE = 0x458
                    0x045a                  C2EC = 0x45a
                    0x045a                  _C2EC = 0x45a
                    0x045a                  C2RERRCNT = 0x45a
                    0x045a                  _C2RERRCNT = 0x45a
                    0x045b                  C2TERRCNT = 0x45b
                    0x045b                  _C2TERRCNT = 0x45b
                    0x0740                  RCON = 0x740
                    0x0740                  _RCON = 0x740
                    0x0742                  OSCCON = 0x742
                    0x0742                  _OSCCON = 0x742
                    0x0744                  OSCTUN = 0x744
                    0x0744                  _OSCTUN = 0x744
                    0x0750                  BSRAM = 0x750
                    0x0750                  _BSRAM = 0x750
                    0x0752                  SSRAM = 0x752
                    0x0752                  _SSRAM = 0x752
                    0x0760                  NVMCON = 0x760
                    0x0760                  _NVMCON = 0x760
                    0x0762                  NVMADR = 0x762
                    0x0762                  _NVMADR = 0x762
                    0x0764                  NVMADRU = 0x764
                    0x0764                  _NVMADRU = 0x764
                    0x0766                  NVMKEY = 0x766
                    0x0766                  _NVMKEY = 0x766
                    0x0770                  PMD1 = 0x770
                    0x0770                  _PMD1 = 0x770
                    0x0772                  PMD2 = 0x772
                    0x0772                  _PMD2 = 0x772
                    0x0774                  PMD3 = 0x774
                    0x0774                  _PMD3 = 0x774
                    0x0022                  ACCA = 0x22
                    0x0022                  _ACCA = 0x22
                    0x0028                  ACCB = 0x28
                    0x0028                  _ACCB = 0x28
                    0x0042                  SRbits = 0x42
                    0x0042                  _SRbits = 0x42
                    0x0044                  CORCONbits = 0x44
                    0x0044                  _CORCONbits = 0x44
                    0x0046                  MODCONbits = 0x46
                    0x0046                  _MODCONbits = 0x46
                    0x0050                  XBREVbits = 0x50
                    0x0050                  _XBREVbits = 0x50
                    0x0052                  DISICNTbits = 0x52
                    0x0052                  _DISICNTbits = 0x52
                    0x0080                  INTCON1bits = 0x80
                    0x0080                  _INTCON1bits = 0x80
                    0x0082                  INTCON2bits = 0x82
                    0x0082                  _INTCON2bits = 0x82
                    0x0084                  IFS0bits = 0x84
                    0x0084                  _IFS0bits = 0x84
                    0x0086                  IFS1bits = 0x86
                    0x0086                  _IFS1bits = 0x86
                    0x0088                  IFS2bits = 0x88
                    0x0088                  _IFS2bits = 0x88
                    0x008c                  IEC0bits = 0x8c
                    0x008c                  _IEC0bits = 0x8c
                    0x008e                  IEC1bits = 0x8e
                    0x008e                  _IEC1bits = 0x8e
                    0x0090                  IEC2bits = 0x90
                    0x0090                  _IEC2bits = 0x90
                    0x0094                  IPC0bits = 0x94
                    0x0094                  _IPC0bits = 0x94
                    0x0096                  IPC1bits = 0x96
                    0x0096                  _IPC1bits = 0x96
                    0x0098                  IPC2bits = 0x98
                    0x0098                  _IPC2bits = 0x98
                    0x009a                  IPC3bits = 0x9a
                    0x009a                  _IPC3bits = 0x9a
                    0x009c                  IPC4bits = 0x9c
                    0x009c                  _IPC4bits = 0x9c
                    0x009e                  IPC5bits = 0x9e
                    0x009e                  _IPC5bits = 0x9e
                    0x00a0                  IPC6bits = 0xa0
                    0x00a0                  _IPC6bits = 0xa0
                    0x00a2                  IPC7bits = 0xa2
                    0x00a2                  _IPC7bits = 0xa2
                    0x00a4                  IPC8bits = 0xa4
                    0x00a4                  _IPC8bits = 0xa4
                    0x00a6                  IPC9bits = 0xa6
                    0x00a6                  _IPC9bits = 0xa6
                    0x00a8                  IPC10bits = 0xa8
                    0x00a8                  _IPC10bits = 0xa8
                    0x00b0                  INTTREGbits = 0xb0
                    0x00b0                  _INTTREGbits = 0xb0
                    0x00c0                  CNEN1bits = 0xc0
                    0x00c0                  _CNEN1bits = 0xc0
                    0x00c2                  CNEN2bits = 0xc2
                    0x00c2                  _CNEN2bits = 0xc2
                    0x00c4                  CNPU1bits = 0xc4
                    0x00c4                  _CNPU1bits = 0xc4
                    0x00c6                  CNPU2bits = 0xc6
                    0x00c6                  _CNPU2bits = 0xc6
                    0x0104                  T1CONbits = 0x104
                    0x0104                  _T1CONbits = 0x104
                    0x0110                  T2CONbits = 0x110
                    0x0110                  _T2CONbits = 0x110
                    0x0112                  T3CONbits = 0x112
                    0x0112                  _T3CONbits = 0x112
                    0x011e                  T4CONbits = 0x11e
                    0x011e                  _T4CONbits = 0x11e
                    0x0120                  T5CONbits = 0x120
                    0x0120                  _T5CONbits = 0x120
                    0x0142                  IC1CONbits = 0x142
                    0x0142                  _IC1CONbits = 0x142
                    0x0146                  IC2CONbits = 0x146
                    0x0146                  _IC2CONbits = 0x146
                    0x014a                  IC3CONbits = 0x14a
                    0x014a                  _IC3CONbits = 0x14a
                    0x014e                  IC4CONbits = 0x14e
                    0x014e                  _IC4CONbits = 0x14e
                    0x0152                  IC5CONbits = 0x152
                    0x0152                  _IC5CONbits = 0x152
                    0x0156                  IC6CONbits = 0x156
                    0x0156                  _IC6CONbits = 0x156
                    0x015a                  IC7CONbits = 0x15a
                    0x015a                  _IC7CONbits = 0x15a
                    0x015e                  IC8CONbits = 0x15e
                    0x015e                  _IC8CONbits = 0x15e
                    0x0184                  OC1CONbits = 0x184
                    0x0184                  _OC1CONbits = 0x184
                    0x018a                  OC2CONbits = 0x18a
                    0x018a                  _OC2CONbits = 0x18a
                    0x0190                  OC3CONbits = 0x190
                    0x0190                  _OC3CONbits = 0x190
                    0x0196                  OC4CONbits = 0x196
                    0x0196                  _OC4CONbits = 0x196
                    0x019c                  OC5CONbits = 0x19c
                    0x019c                  _OC5CONbits = 0x19c
                    0x01a2                  OC6CONbits = 0x1a2
                    0x01a2                  _OC6CONbits = 0x1a2
                    0x01a8                  OC7CONbits = 0x1a8
                    0x01a8                  _OC7CONbits = 0x1a8
                    0x01ae                  OC8CONbits = 0x1ae
                    0x01ae                  _OC8CONbits = 0x1ae
                    0x0200                  I2CRCVbits = 0x200
                    0x0200                  _I2CRCVbits = 0x200
                    0x0202                  I2CTRNbits = 0x202
                    0x0202                  _I2CTRNbits = 0x202
                    0x0204                  I2CBRGbits = 0x204
                    0x0204                  _I2CBRGbits = 0x204
                    0x0206                  I2CCONbits = 0x206
                    0x0206                  _I2CCONbits = 0x206
                    0x0208                  I2CSTATbits = 0x208
                    0x0208                  _I2CSTATbits = 0x208
                    0x020a                  I2CADDbits = 0x20a
                    0x020a                  _I2CADDbits = 0x20a
                    0x020c                  U1MODEbits = 0x20c
                    0x020c                  _U1MODEbits = 0x20c
                    0x020e                  U1STAbits = 0x20e
                    0x020e                  _U1STAbits = 0x20e
                    0x0210                  U1TXREGbits = 0x210
                    0x0210                  _U1TXREGbits = 0x210
                    0x0212                  U1RXREGbits = 0x212
                    0x0212                  _U1RXREGbits = 0x212
                    0x0216                  U2MODEbits = 0x216
                    0x0216                  _U2MODEbits = 0x216
                    0x0218                  U2STAbits = 0x218
                    0x0218                  _U2STAbits = 0x218
                    0x021a                  U2TXREGbits = 0x21a
                    0x021a                  _U2TXREGbits = 0x21a
                    0x021c                  U2RXREGbits = 0x21c
                    0x021c                  _U2RXREGbits = 0x21c
                    0x0220                  SPI1STATbits = 0x220
                    0x0220                  _SPI1STATbits = 0x220
                    0x0222                  SPI1CONbits = 0x222
                    0x0222                  _SPI1CONbits = 0x222
                    0x0226                  SPI2STATbits = 0x226
                    0x0226                  _SPI2STATbits = 0x226
                    0x0228                  SPI2CONbits = 0x228
                    0x0228                  _SPI2CONbits = 0x228
                    0x0240                  DCICON1bits = 0x240
                    0x0240                  _DCICON1bits = 0x240
                    0x0242                  DCICON2bits = 0x242
                    0x0242                  _DCICON2bits = 0x242
                    0x0244                  DCICON3bits = 0x244
                    0x0244                  _DCICON3bits = 0x244
                    0x0246                  DCISTATbits = 0x246
                    0x0246                  _DCISTATbits = 0x246
                    0x0248                  TSCONbits = 0x248
                    0x0248                  _TSCONbits = 0x248
                    0x024c                  RSCONbits = 0x24c
                    0x024c                  _RSCONbits = 0x24c
                    0x02a0                  ADCON1bits = 0x2a0
                    0x02a0                  _ADCON1bits = 0x2a0
                    0x02a2                  ADCON2bits = 0x2a2
                    0x02a2                  _ADCON2bits = 0x2a2
                    0x02a4                  ADCON3bits = 0x2a4
                    0x02a4                  _ADCON3bits = 0x2a4
                    0x02a6                  ADCHSbits = 0x2a6
                    0x02a6                  _ADCHSbits = 0x2a6
                    0x02a8                  ADPCFGbits = 0x2a8
                    0x02a8                  _ADPCFGbits = 0x2a8
                    0x02aa                  ADCSSLbits = 0x2aa
                    0x02aa                  _ADCSSLbits = 0x2aa
                    0x02c0                  TRISAbits = 0x2c0
                    0x02c0                  _TRISAbits = 0x2c0
                    0x02c2                  PORTAbits = 0x2c2
                    0x02c2                  _PORTAbits = 0x2c2
                    0x02c4                  LATAbits = 0x2c4
                    0x02c4                  _LATAbits = 0x2c4
                    0x02c6                  TRISBbits = 0x2c6
                    0x02c6                  _TRISBbits = 0x2c6
                    0x02c8                  PORTBbits = 0x2c8
                    0x02c8                  _PORTBbits = 0x2c8
                    0x02ca                  LATBbits = 0x2ca
                    0x02ca                  _LATBbits = 0x2ca
                    0x02cc                  TRISCbits = 0x2cc
                    0x02cc                  _TRISCbits = 0x2cc
                    0x02ce                  PORTCbits = 0x2ce
                    0x02ce                  _PORTCbits = 0x2ce
                    0x02d0                  LATCbits = 0x2d0
                    0x02d0                  _LATCbits = 0x2d0
                    0x02d2                  TRISDbits = 0x2d2
                    0x02d2                  _TRISDbits = 0x2d2
                    0x02d4                  PORTDbits = 0x2d4
                    0x02d4                  _PORTDbits = 0x2d4
                    0x02d6                  LATDbits = 0x2d6
                    0x02d6                  _LATDbits = 0x2d6
                    0x02de                  TRISFbits = 0x2de
                    0x02de                  _TRISFbits = 0x2de
                    0x02e0                  PORTFbits = 0x2e0
                    0x02e0                  _PORTFbits = 0x2e0
                    0x02e2                  LATFbits = 0x2e2
                    0x02e2                  _LATFbits = 0x2e2
                    0x02e4                  TRISGbits = 0x2e4
                    0x02e4                  _TRISGbits = 0x2e4
                    0x02e6                  PORTGbits = 0x2e6
                    0x02e6                  _PORTGbits = 0x2e6
                    0x02e8                  LATGbits = 0x2e8
                    0x02e8                  _LATGbits = 0x2e8
                    0x0300                  C1RXF0SIDbits = 0x300
                    0x0300                  _C1RXF0SIDbits = 0x300
                    0x0302                  C1RXF0EIDHbits = 0x302
                    0x0302                  _C1RXF0EIDHbits = 0x302
                    0x0304                  C1RXF0EIDLbits = 0x304
                    0x0304                  _C1RXF0EIDLbits = 0x304
                    0x0308                  C1RXF1SIDbits = 0x308
                    0x0308                  _C1RXF1SIDbits = 0x308
                    0x030a                  C1RXF1EIDHbits = 0x30a
                    0x030a                  _C1RXF1EIDHbits = 0x30a
                    0x030c                  C1RXF1EIDLbits = 0x30c
                    0x030c                  _C1RXF1EIDLbits = 0x30c
                    0x0310                  C1RXF2SIDbits = 0x310
                    0x0310                  _C1RXF2SIDbits = 0x310
                    0x0312                  C1RXF2EIDHbits = 0x312
                    0x0312                  _C1RXF2EIDHbits = 0x312
                    0x0314                  C1RXF2EIDLbits = 0x314
                    0x0314                  _C1RXF2EIDLbits = 0x314
                    0x0318                  C1RXF3SIDbits = 0x318
                    0x0318                  _C1RXF3SIDbits = 0x318
                    0x031a                  C1RXF3EIDHbits = 0x31a
                    0x031a                  _C1RXF3EIDHbits = 0x31a
                    0x031c                  C1RXF3EIDLbits = 0x31c
                    0x031c                  _C1RXF3EIDLbits = 0x31c
                    0x0320                  C1RXF4SIDbits = 0x320
                    0x0320                  _C1RXF4SIDbits = 0x320
                    0x0322                  C1RXF4EIDHbits = 0x322
                    0x0322                  _C1RXF4EIDHbits = 0x322
                    0x0324                  C1RXF4EIDLbits = 0x324
                    0x0324                  _C1RXF4EIDLbits = 0x324
                    0x0328                  C1RXF5SIDbits = 0x328
                    0x0328                  _C1RXF5SIDbits = 0x328
                    0x032a                  C1RXF5EIDHbits = 0x32a
                    0x032a                  _C1RXF5EIDHbits = 0x32a
                    0x032c                  C1RXF5EIDLbits = 0x32c
                    0x032c                  _C1RXF5EIDLbits = 0x32c
                    0x0330                  C1RXM0SIDbits = 0x330
                    0x0330                  _C1RXM0SIDbits = 0x330
                    0x0332                  C1RXM0EIDHbits = 0x332
                    0x0332                  _C1RXM0EIDHbits = 0x332
                    0x0334                  C1RXM0EIDLbits = 0x334
                    0x0334                  _C1RXM0EIDLbits = 0x334
                    0x0338                  C1RXM1SIDbits = 0x338
                    0x0338                  _C1RXM1SIDbits = 0x338
                    0x033a                  C1RXM1EIDHbits = 0x33a
                    0x033a                  _C1RXM1EIDHbits = 0x33a
                    0x033c                  C1RXM1EIDLbits = 0x33c
                    0x033c                  _C1RXM1EIDLbits = 0x33c
                    0x0340                  C1TX2SIDbits = 0x340
                    0x0340                  _C1TX2SIDbits = 0x340
                    0x0342                  C1TX2EIDbits = 0x342
                    0x0342                  _C1TX2EIDbits = 0x342
                    0x0344                  C1TX2DLCbits = 0x344
                    0x0344                  _C1TX2DLCbits = 0x344
                    0x0346                  C1TX2B1bits = 0x346
                    0x0346                  _C1TX2B1bits = 0x346
                    0x0348                  C1TX2B2bits = 0x348
                    0x0348                  _C1TX2B2bits = 0x348
                    0x034a                  C1TX2B3bits = 0x34a
                    0x034a                  _C1TX2B3bits = 0x34a
                    0x034c                  C1TX2B4bits = 0x34c
                    0x034c                  _C1TX2B4bits = 0x34c
                    0x034e                  C1TX2CONbits = 0x34e
                    0x034e                  _C1TX2CONbits = 0x34e
                    0x0350                  C1TX1SIDbits = 0x350
                    0x0350                  _C1TX1SIDbits = 0x350
                    0x0352                  C1TX1EIDbits = 0x352
                    0x0352                  _C1TX1EIDbits = 0x352
                    0x0354                  C1TX1DLCbits = 0x354
                    0x0354                  _C1TX1DLCbits = 0x354
                    0x0356                  C1TX1B1bits = 0x356
                    0x0356                  _C1TX1B1bits = 0x356
                    0x0358                  C1TX1B2bits = 0x358
                    0x0358                  _C1TX1B2bits = 0x358
                    0x035a                  C1TX1B3bits = 0x35a
                    0x035a                  _C1TX1B3bits = 0x35a
                    0x035c                  C1TX1B4bits = 0x35c
                    0x035c                  _C1TX1B4bits = 0x35c
                    0x035e                  C1TX1CONbits = 0x35e
                    0x035e                  _C1TX1CONbits = 0x35e
                    0x0360                  C1TX0SIDbits = 0x360
                    0x0360                  _C1TX0SIDbits = 0x360
                    0x0362                  C1TX0EIDbits = 0x362
                    0x0362                  _C1TX0EIDbits = 0x362
                    0x0364                  C1TX0DLCbits = 0x364
                    0x0364                  _C1TX0DLCbits = 0x364
                    0x0366                  C1TX0B1bits = 0x366
                    0x0366                  _C1TX0B1bits = 0x366
                    0x0368                  C1TX0B2bits = 0x368
                    0x0368                  _C1TX0B2bits = 0x368
                    0x036a                  C1TX0B3bits = 0x36a
                    0x036a                  _C1TX0B3bits = 0x36a
                    0x036c                  C1TX0B4bits = 0x36c
                    0x036c                  _C1TX0B4bits = 0x36c
                    0x036e                  C1TX0CONbits = 0x36e
                    0x036e                  _C1TX0CONbits = 0x36e
                    0x0370                  C1RX1SIDbits = 0x370
                    0x0370                  _C1RX1SIDbits = 0x370
                    0x0372                  C1RX1EIDbits = 0x372
                    0x0372                  _C1RX1EIDbits = 0x372
                    0x0374                  C1RX1DLCbits = 0x374
                    0x0374                  _C1RX1DLCbits = 0x374
                    0x0376                  C1RX1B1bits = 0x376
                    0x0376                  _C1RX1B1bits = 0x376
                    0x0378                  C1RX1B2bits = 0x378
                    0x0378                  _C1RX1B2bits = 0x378
                    0x037a                  C1RX1B3bits = 0x37a
                    0x037a                  _C1RX1B3bits = 0x37a
                    0x037c                  C1RX1B4bits = 0x37c
                    0x037c                  _C1RX1B4bits = 0x37c
                    0x037e                  C1RX1CONbits = 0x37e
                    0x037e                  _C1RX1CONbits = 0x37e
                    0x0380                  C1RX0SIDbits = 0x380
                    0x0380                  _C1RX0SIDbits = 0x380
                    0x0382                  C1RX0EIDbits = 0x382
                    0x0382                  _C1RX0EIDbits = 0x382
                    0x0384                  C1RX0DLCbits = 0x384
                    0x0384                  _C1RX0DLCbits = 0x384
                    0x0386                  C1RX0B1bits = 0x386
                    0x0386                  _C1RX0B1bits = 0x386
                    0x0388                  C1RX0B2bits = 0x388
                    0x0388                  _C1RX0B2bits = 0x388
                    0x038a                  C1RX0B3bits = 0x38a
                    0x038a                  _C1RX0B3bits = 0x38a
                    0x038c                  C1RX0B4bits = 0x38c
                    0x038c                  _C1RX0B4bits = 0x38c
                    0x038e                  C1RX0CONbits = 0x38e
                    0x038e                  _C1RX0CONbits = 0x38e
                    0x0390                  C1CTRLbits = 0x390
                    0x0390                  _C1CTRLbits = 0x390
                    0x0392                  C1CFG1bits = 0x392
                    0x0392                  _C1CFG1bits = 0x392
                    0x0394                  C1CFG2bits = 0x394
                    0x0394                  _C1CFG2bits = 0x394
                    0x0396                  C1INTFbits = 0x396
                    0x0396                  _C1INTFbits = 0x396
                    0x0398                  C1INTEbits = 0x398
                    0x0398                  _C1INTEbits = 0x398
                    0x039a                  C1ECbits = 0x39a
                    0x039a                  _C1ECbits = 0x39a
                    0x03c0                  C2RXF0SIDbits = 0x3c0
                    0x03c0                  _C2RXF0SIDbits = 0x3c0
                    0x03c2                  C2RXF0EIDHbits = 0x3c2
                    0x03c2                  _C2RXF0EIDHbits = 0x3c2
                    0x03c4                  C2RXF0EIDLbits = 0x3c4
                    0x03c4                  _C2RXF0EIDLbits = 0x3c4
                    0x03c8                  C2RXF1SIDbits = 0x3c8
                    0x03c8                  _C2RXF1SIDbits = 0x3c8
                    0x03ca                  C2RXF1EIDHbits = 0x3ca
                    0x03ca                  _C2RXF1EIDHbits = 0x3ca
                    0x03cc                  C2RXF1EIDLbits = 0x3cc
                    0x03cc                  _C2RXF1EIDLbits = 0x3cc
                    0x03d0                  C2RXF2SIDbits = 0x3d0
                    0x03d0                  _C2RXF2SIDbits = 0x3d0
                    0x03d2                  C2RXF2EIDHbits = 0x3d2
                    0x03d2                  _C2RXF2EIDHbits = 0x3d2
                    0x03d4                  C2RXF2EIDLbits = 0x3d4
                    0x03d4                  _C2RXF2EIDLbits = 0x3d4
                    0x03d8                  C2RXF3SIDbits = 0x3d8
                    0x03d8                  _C2RXF3SIDbits = 0x3d8
                    0x03da                  C2RXF3EIDHbits = 0x3da
                    0x03da                  _C2RXF3EIDHbits = 0x3da
                    0x03dc                  C2RXF3EIDLbits = 0x3dc
                    0x03dc                  _C2RXF3EIDLbits = 0x3dc
                    0x03e0                  C2RXF4SIDbits = 0x3e0
                    0x03e0                  _C2RXF4SIDbits = 0x3e0
                    0x03e2                  C2RXF4EIDHbits = 0x3e2
                    0x03e2                  _C2RXF4EIDHbits = 0x3e2
                    0x03e4                  C2RXF4EIDLbits = 0x3e4
                    0x03e4                  _C2RXF4EIDLbits = 0x3e4
                    0x03e8                  C2RXF5SIDbits = 0x3e8
                    0x03e8                  _C2RXF5SIDbits = 0x3e8
                    0x03ea                  C2RXF5EIDHbits = 0x3ea
                    0x03ea                  _C2RXF5EIDHbits = 0x3ea
                    0x03ec                  C2RXF5EIDLbits = 0x3ec
                    0x03ec                  _C2RXF5EIDLbits = 0x3ec
                    0x03f0                  C2RXM0SIDbits = 0x3f0
                    0x03f0                  _C2RXM0SIDbits = 0x3f0
                    0x03f2                  C2RXM0EIDHbits = 0x3f2
                    0x03f2                  _C2RXM0EIDHbits = 0x3f2
                    0x03f4                  C2RXM0EIDLbits = 0x3f4
                    0x03f4                  _C2RXM0EIDLbits = 0x3f4
                    0x03f8                  C2RXM1SIDbits = 0x3f8
                    0x03f8                  _C2RXM1SIDbits = 0x3f8
                    0x03fa                  C2RXM1EIDHbits = 0x3fa
                    0x03fa                  _C2RXM1EIDHbits = 0x3fa
                    0x03fc                  C2RXM1EIDLbits = 0x3fc
                    0x03fc                  _C2RXM1EIDLbits = 0x3fc
                    0x0400                  C2TX2SIDbits = 0x400
                    0x0400                  _C2TX2SIDbits = 0x400
                    0x0402                  C2TX2EIDbits = 0x402
                    0x0402                  _C2TX2EIDbits = 0x402
                    0x0404                  C2TX2DLCbits = 0x404
                    0x0404                  _C2TX2DLCbits = 0x404
                    0x0406                  C2TX2B1bits = 0x406
                    0x0406                  _C2TX2B1bits = 0x406
                    0x0408                  C2TX2B2bits = 0x408
                    0x0408                  _C2TX2B2bits = 0x408
                    0x040a                  C2TX2B3bits = 0x40a
                    0x040a                  _C2TX2B3bits = 0x40a
                    0x040c                  C2TX2B4bits = 0x40c
                    0x040c                  _C2TX2B4bits = 0x40c
                    0x040e                  C2TX2CONbits = 0x40e
                    0x040e                  _C2TX2CONbits = 0x40e
                    0x0410                  C2TX1SIDbits = 0x410
                    0x0410                  _C2TX1SIDbits = 0x410
                    0x0412                  C2TX1EIDbits = 0x412
                    0x0412                  _C2TX1EIDbits = 0x412
                    0x0414                  C2TX1DLCbits = 0x414
                    0x0414                  _C2TX1DLCbits = 0x414
                    0x0416                  C2TX1B1bits = 0x416
                    0x0416                  _C2TX1B1bits = 0x416
                    0x0418                  C2TX1B2bits = 0x418
                    0x0418                  _C2TX1B2bits = 0x418
                    0x041a                  C2TX1B3bits = 0x41a
                    0x041a                  _C2TX1B3bits = 0x41a
                    0x041c                  C2TX1B4bits = 0x41c
                    0x041c                  _C2TX1B4bits = 0x41c
                    0x041e                  C2TX1CONbits = 0x41e
                    0x041e                  _C2TX1CONbits = 0x41e
                    0x0420                  C2TX0SIDbits = 0x420
                    0x0420                  _C2TX0SIDbits = 0x420
                    0x0422                  C2TX0EIDbits = 0x422
                    0x0422                  _C2TX0EIDbits = 0x422
                    0x0424                  C2TX0DLCbits = 0x424
                    0x0424                  _C2TX0DLCbits = 0x424
                    0x0426                  C2TX0B1bits = 0x426
                    0x0426                  _C2TX0B1bits = 0x426
                    0x0428                  C2TX0B2bits = 0x428
                    0x0428                  _C2TX0B2bits = 0x428
                    0x042a                  C2TX0B3bits = 0x42a
                    0x042a                  _C2TX0B3bits = 0x42a
                    0x042c                  C2TX0B4bits = 0x42c
                    0x042c                  _C2TX0B4bits = 0x42c
                    0x042e                  C2TX0CONbits = 0x42e
                    0x042e                  _C2TX0CONbits = 0x42e
                    0x0430                  C2RX1SIDbits = 0x430
                    0x0430                  _C2RX1SIDbits = 0x430
                    0x0432                  C2RX1EIDbits = 0x432
                    0x0432                  _C2RX1EIDbits = 0x432
                    0x0434                  C2RX1DLCbits = 0x434
                    0x0434                  _C2RX1DLCbits = 0x434
                    0x0436                  C2RX1B1bits = 0x436
                    0x0436                  _C2RX1B1bits = 0x436
                    0x0438                  C2RX1B2bits = 0x438
                    0x0438                  _C2RX1B2bits = 0x438
                    0x043a                  C2RX1B3bits = 0x43a
                    0x043a                  _C2RX1B3bits = 0x43a
                    0x043c                  C2RX1B4bits = 0x43c
                    0x043c                  _C2RX1B4bits = 0x43c
                    0x043e                  C2RX1CONbits = 0x43e
                    0x043e                  _C2RX1CONbits = 0x43e
                    0x0440                  C2RX0SIDbits = 0x440
                    0x0440                  _C2RX0SIDbits = 0x440
                    0x0442                  C2RX0EIDbits = 0x442
                    0x0442                  _C2RX0EIDbits = 0x442
                    0x0444                  C2RX0DLCbits = 0x444
                    0x0444                  _C2RX0DLCbits = 0x444
                    0x0446                  C2RX0B1bits = 0x446
                    0x0446                  _C2RX0B1bits = 0x446
                    0x0448                  C2RX0B2bits = 0x448
                    0x0448                  _C2RX0B2bits = 0x448
                    0x044a                  C2RX0B3bits = 0x44a
                    0x044a                  _C2RX0B3bits = 0x44a
                    0x044c                  C2RX0B4bits = 0x44c
                    0x044c                  _C2RX0B4bits = 0x44c
                    0x044e                  C2RX0CONbits = 0x44e
                    0x044e                  _C2RX0CONbits = 0x44e
                    0x0450                  C2CTRLbits = 0x450
                    0x0450                  _C2CTRLbits = 0x450
                    0x0452                  C2CFG1bits = 0x452
                    0x0452                  _C2CFG1bits = 0x452
                    0x0454                  C2CFG2bits = 0x454
                    0x0454                  _C2CFG2bits = 0x454
                    0x0456                  C2INTFbits = 0x456
                    0x0456                  _C2INTFbits = 0x456
                    0x0458                  C2INTEbits = 0x458
                    0x0458                  _C2INTEbits = 0x458
                    0x045a                  C2ECbits = 0x45a
                    0x045a                  _C2ECbits = 0x45a
                    0x0740                  RCONbits = 0x740
                    0x0740                  _RCONbits = 0x740
                    0x0742                  OSCCONbits = 0x742
                    0x0742                  _OSCCONbits = 0x742
                    0x0750                  BSRAMbits = 0x750
                    0x0750                  _BSRAMbits = 0x750
                    0x0752                  SSRAMbits = 0x752
                    0x0752                  _SSRAMbits = 0x752
                    0x0760                  NVMCONbits = 0x760
                    0x0760                  _NVMCONbits = 0x760
                    0x0770                  PMD1bits = 0x770
                    0x0770                  _PMD1bits = 0x770
                    0x0772                  PMD2bits = 0x772
                    0x0772                  _PMD2bits = 0x772
                    0x0774                  PMD3bits = 0x774
                    0x0774                  _PMD3bits = 0x774
                    0x0140                  IC1 = 0x140
                    0x0140                  _IC1 = 0x140
                    0x0144                  IC2 = 0x144
                    0x0144                  _IC2 = 0x144
                    0x0148                  IC3 = 0x148
                    0x0148                  _IC3 = 0x148
                    0x014c                  IC4 = 0x14c
                    0x014c                  _IC4 = 0x14c
                    0x0150                  IC5 = 0x150
                    0x0150                  _IC5 = 0x150
                    0x0154                  IC6 = 0x154
                    0x0154                  _IC6 = 0x154
                    0x0158                  IC7 = 0x158
                    0x0158                  _IC7 = 0x158
                    0x015c                  IC8 = 0x15c
                    0x015c                  _IC8 = 0x15c
                    0x0180                  OC1 = 0x180
                    0x0180                  _OC1 = 0x180
                    0x0186                  OC2 = 0x186
                    0x0186                  _OC2 = 0x186
                    0x018c                  OC3 = 0x18c
                    0x018c                  _OC3 = 0x18c
                    0x0192                  OC4 = 0x192
                    0x0192                  _OC4 = 0x192
                    0x0198                  OC5 = 0x198
                    0x0198                  _OC5 = 0x198
                    0x019e                  OC6 = 0x19e
                    0x019e                  _OC6 = 0x19e
                    0x01a4                  OC7 = 0x1a4
                    0x01a4                  _OC7 = 0x1a4
                    0x01aa                  OC8 = 0x1aa
                    0x01aa                  _OC8 = 0x1aa
                    0x020c                  UART1 = 0x20c
                    0x020c                  _UART1 = 0x20c
                    0x0216                  UART2 = 0x216
                    0x0216                  _UART2 = 0x216
                    0x0220                  SPI1 = 0x220
                    0x0220                  _SPI1 = 0x220
                    0x0226                  SPI2 = 0x226
                    0x0226                  _SPI2 = 0x226
                    0x0300                  CAN1 = 0x300
                    0x0300                  _CAN1 = 0x300
                    0x03c0                  CAN2 = 0x3c0
                    0x03c0                  _CAN2 = 0x3c0
                    0x0001                  __MPLAB_BUILD = 0x1
START GROUP
LOAD c:/program files (x86)/microchip/mplab c30/bin/../lib\libpic30-coff.a
LOAD c:/program files (x86)/microchip/mplab c30/bin/../lib\libm-coff.a
LOAD c:/program files (x86)/microchip/mplab c30/bin/../lib\libc-coff.a
END GROUP
OUTPUT(PULSEMIG.cof coff-pic30)
LOAD FGS
LOAD data_init
LOAD default_isr

.const              0xd2a4        0xbac
 .const             0xd2a4        0xbac MAIN.o
                    0xd2a4                  para_minu
                    0xd314                  para_maxu
                    0xd384                  Decay_lookup1
                    0xd3ea                  Decay_lookup2
                    0xd450                  keyeqv
                    0xd45c                  lookup_table
                    0xd74c                  ar11
                    0xd75a                  ar12
                    0xd76f                  ar13
                    0xd784                  ar14
                    0xd795                  ar15
                    0xd7b1                  ar20
                    0xd7c6                  mmatms
                    0xd7ca                  mmatss
                    0xd7ce                  mmatci
                    0xd7d2                  mdiatwoptfive
                    0xd7d6                  mdiathreepttwo
                    0xd7da                  mdiafourptzero
                    0xd7de                  mdiafiveptzero
                    0xd7e2                  msevenzero
                    0xd7e9                  msixzero
                    0xd7f0                  mcelwel
                    0xd7f7                  mthreezero
                    0xd7fe                  mnicl
                    0xd805                  ar81
                    0xd814                  ar82
                    0xd83e                  ar83
                    0xd867                  ar84
                    0xd873                  ar85
                    0xd882                  ar86
                    0xd88b                  ar87
                    0xd897                  ar88
                    0xd8a7                  ar89
                    0xd8b7                  ar90
                    0xd8c4                  ar31
                    0xd8d2                  ar32
                    0xd8e7                  ar33
                    0xd8fc                  ar34
                    0xd90b                  ar35
                    0xd920                  ar36
                    0xd935                  ar37
                    0xd94a                  ar38
                    0xd961                  ar39
                    0xd978                  ar40
                    0xd98d                  ar45
                    0xd99b                  matms
                    0xd9a3                  matss
                    0xd9ab                  matalu
                    0xd9b3                  matssfcaw
                    0xd9bb                  matmsfcaw
                    0xd9c3                  diazeropteight
                    0xd9c7                  diaoneptzero
                    0xd9cb                  diaonepttwo
                    0xd9cf                  diaoneptsix
                    0xd9d3                  gasarco2
                    0xd9d9                  gasco2
                    0xd9df                  gastype1
                    0xd9e7                  gastype2
                    0xd9ef                  gasaro2
                    0xd9f5                  gasar
                    0xd9fb                  cMatMigTxt
                    0xda3a                  cDiaTxt
                    0xda58                  cGasTxt
                    0xda7c                  cGasPercent
                    0xdaac                  ar51
                    0xdac1                  ar52
                    0xdad6                  ar53
                    0xdaeb                  ar54
                    0xdb00                  ar55
                    0xdb15                  ar21
                    0xdb23                  ar22
                    0xdb38                  ar23
                    0xdb4d                  ar30
                    0xdb62                  ar24
                    0xdb77                  ar25
                    0xdb8c                  ar26
                    0xdba1                  ar27
                    0xdbb6                  ar28
                    0xdbcb                  ar29
                    0xdbe0                  arFOOT
                    0xdbec                  arNORM
                    0xdbf8                  tmatss
                    0xdbfc                  tmatdcu
                    0xdc00                  tdiaoneptsix
                    0xdc05                  tdiatwoptfour
                    0xdc0a                  tdiathreepttwo
                    0xdc0f                  tdiafourpteight
                    0xdc14                  tdiasixptfour
                    0xdc19                  tdiatwelvepteight
                    0xdc1e                  tbutt
                    0xdc25                  tlap
                    0xdc2c                  tcorner
                    0xdc33                  tfillet
                    0xdc3a                  ar41
                    0xdc48                  ar42
                    0xdc5d                  ar43
                    0xdc72                  ar44
                    0xdc82                  ar50
                    0xdc97                  pmatms
                    0xdc9f                  pmat71t1
                    0xdca7                  pmat180r
                    0xdcaf                  pmatss18
                    0xdcb7                  pmatss19
                    0xdcbf                  pmatalu4043
                    0xdcc7                  pmatalu5356
                    0xdccf                  pmatalu99
                    0xdcd7                  ar0
                    0xdced                  ar1
                    0xdcfc                  ar2
                    0xdd0c                  ar3
                    0xdd18                  cErrorMsgLine1
                    0xdd80                  cErrorMsgLine2
                    0xdde8                  cErrorMsgLine3

.xbss               0x0800          0x6
 .xbss              0x0800          0x6 MAIN.o
                    0x0800                  abcCoefficient

.ybss               0x1ffa          0x6
 .ybss              0x1ffa          0x6 MAIN.o
                    0x1ffa                  controlHistory

.ndata              0x0806        0x846
 .ndata             0x0806        0x846 MAIN.o
                    0x0806                  kCoeffs
                    0x080c                  tempkey
                    0x080d                  temp
                    0x080e                  ijk
                    0x080f                  disdigit
                    0x0810                  setdp
                    0x0811                  firstpulse1
                    0x0812                  plus111
                    0x0813                  result
                    0x0814                  minus111
                    0x0815                  new1
                    0x0816                  firstpulse2
                    0x0817                  plus222
                    0x0818                  minus222
                    0x0819                  new2
                    0x081a                  firstpulse3
                    0x081b                  plus333
                    0x081c                  minus333
                    0x081d                  new3
                    0x081e                  scan_count
                    0x081f                  encod1
                    0x0820                  encod2
                    0x0821                  encod3
                    0x0822                  old1
                    0x0823                  old2
                    0x0824                  old3
                    0x0825                  col
                    0x0826                  glcd_flag
                    0x0827                  key
                    0x0828                  ans
                    0x0829                  Prevkey
                    0x082a                  softstartf
                    0x082b                  weldmodeoff
                    0x082c                  setptimef
                    0x082d                  setstimef
                    0x082e                  openloopnew
                    0x082f                  Aweldonf
                    0x0830                  keyrow
                    0x0831                  keycolumn
                    0x0832                  keypad
                    0x0833                  weldingonf
                    0x0834                  PULSEavgf
                    0x0835                  adcreadf
                    0x0836                  shortcktonf
                    0x0837                  MIGweldon_detectf
                    0x0838                  pulseweldonf
                    0x083a                  twinpulsecnt
                    0x083c                  weldwiredia
                    0x0844                  power_delay
                    0x0846                  i
                    0x0848                  j
                    0x084a                  k
                    0x084c                  num1
                    0x084e                  num2
                    0x0850                  val
                    0x0852                  CURRENT
                    0x0854                  VOLTAGE
                    0x0856                  BVOLTAGE
                    0x0858                  PVOLTAGE
                    0x085a                  MVOLTAGE
                    0x085c                  TRIPVTG
                    0x085e                  daccount
                    0x0860                  count_1ms
                    0x0862                  count_20ms
                    0x0864                  count_500ms
                    0x0866                  count_200ms
                    0x0868                  cout_100us
                    0x086a                  prevwirespeed
                    0x086c                  curwirespeed
                    0x086e                  count_500ms1
                    0x0870                  count_500ms2
                    0x0872                  maxbasetime
                    0x0876                  minbasetime
                    0x087a                  pulsebase
                    0x087e                  pulsepeak
                    0x0882                  pulsestep
                    0x0886                  pdaccount
                    0x088a                  uppeakamp
                    0x088e                  uppdaccount
                    0x0892                  sdaccount
                    0x0896                  bdaccount
                    0x089a                  peakamp
                    0x089e                  stepamp
                    0x08a2                  baseamp
                    0x08a6                  pulseduty
                    0x08aa                  weldonf
                    0x08ab                  peakf
                    0x08ac                  stepf
                    0x08ad                  basef
                    0x08ae                  mbase1f
                    0x08af                  mbase2f
                    0x08b0                  mpeak1f
                    0x08b1                  mpeak2f
                    0x08b2                  setupmode
                    0x08b3                  setpeakf
                    0x08b4                  setstepf
                    0x08b5                  setbasef
                    0x08b6                  setfreqf
                    0x08b7                  modechangef
                    0x08b8                  peaktime
                    0x08bc                  steptime
                    0x08c0                  newbasetime
                    0x08c4                  newsteptime
                    0x08c8                  startpulsetime
                    0x08cc                  timer_first_edge
                    0x08ce                  timer_second_edge
                    0x08d0                  mperiod
                    0x08d2                  Prev_mperiod
                    0x08d4                  mfreq
                    0x08d6                  newpeakamp
                    0x08d8                  refbtime
                    0x08da                  maxrefbtime
                    0x08dc                  minrefbtime
                    0x08de                  setwsfreq
                    0x08e0                  softstartcnt
                    0x08e2                  refpulsebase
                    0x08e4                  refbaseamp
                    0x08e6                  newpulsebase
                    0x08e8                  maxpulsefreq
                    0x08ea                  minpulsefreq
                    0x08ec                  scaled_baseval2
                    0x08f0                  scaled_baseval22
                    0x08f4                  OPEN_scaled_val1
                    0x08f8                  OPEN_pidoutput1
                    0x08fc                  pulsefreq
                    0x0900                  Hi_pulsefreq
                    0x0904                  Lo_pulsefreq
                    0x0908                  circular_arr
                    0x0912                  sum_circular_arr
                    0x0914                  circular_cnt
                    0x0916                  pulseontime
                    0x0918                  PULSEamp
                    0x091a                  PULSEvtg
                    0x091c                  CVOLTAGE
                    0x091e                  loadbasetime
                    0x0920                  loadbaseamp
                    0x0922                  adel
                    0x0924                  bdel
                    0x0926                  wirestickupcnt
                    0x0928                  wirestickdowncnt
                    0x092a                  SCKCURRENT
                    0x092c                  ARCLFACTOR
                    0x0930                  pidkp
                    0x0934                  pidki
                    0x0938                  pidkd
                    0x093c                  disp_kiterm
                    0x093e                  constpeakamp
                    0x0940                  const_arc_strike_pdaccount
                    0x0942                  count_weldonms
                    0x0944                  delarcon11
                    0x0946                  prevFltbvtg
                    0x0948                  Fltbvtg
                    0x094a                  rel_wirespeed
                    0x094c                  startbmeasuref
                    0x094d                  endbmeasuref
                    0x094e                  arcforceonf
                    0x094f                  trans2_onf
                    0x0950                  adcreadoverf
                    0x0951                  addafref
                    0x0952                  lcdpage
                    0x0954                  SUMSCKBVTGARR
                    0x0956                  SCKCNT
                    0x0958                  AVGBSCKVTG
                    0x095a                  SCKBVOLTAGE
                    0x095c                  id
                    0x095e                  jd
                    0x0960                  count_tx2_1ms
                    0x0962                  count_tx2
                    0x0964                  vtg_circular_cnt
                    0x0966                  ACT_CVOLTAGE
                    0x0968                  Shortcktf
                    0x0969                  wfchangef
                    0x096a                  stopbasef
                    0x096b                  firstpulsef
                    0x096c                  DISPavgf
                    0x096d                  SCKavgf
                    0x096e                  intkp
                    0x096f                  intkd
                    0x0970                  totalsumbvtg
                    0x0974                  totalsumbcnt
                    0x0978                  newpulseduty
                    0x097c                  totalsumtrip
                    0x0980                  total_fltbvtg
                    0x0982                  Fltbvtgcnt
                    0x0984                  avg_fltbvtg
                    0x0986                  afbcurrent
                    0x0988                  setpidbamp
                    0x098a                  af_bdaccount
                    0x098c                  actual_fltbvtg
                    0x098e                  pidfactor
                    0x0990                  pulsestartcnt
                    0x0992                  twinpulsefreq
                    0x0996                  twinpulseperiod
                    0x099a                  twinpulseduty
                    0x099e                  twinpulseratio
                    0x09a2                  twinpulseonperiod
                    0x09a6                  twinpulseoffperiod
                    0x09aa                  scaled_val1
                    0x09ae                  scaled_baseval
                    0x09b2                  minoutmax
                    0x09b6                  addrippleamp
                    0x09ba                  totaltempvtg
                    0x09bc                  tempvtgcnt
                    0x09be                  avgtempvtg
                    0x09c0                  mavgtempvtg
                    0x09c2                  wirestickf
                    0x09c4                  tempvtg
                    0x09c6                  presumdaccount
                    0x09c8                  ALEN_pulsefreq
                    0x09d0                  error_tx_flag
                    0x09d2                  fSampling_freq
                    0x09d6                  scalefactor2
                    0x09d8                  scalefactor1
                    0x09da                  reference_area
                    0x09dc                  refpulsefreq
                    0x09de                  Pvolterr
                    0x09e0                  weldonstartfcnt
                    0x09e2                  weldonstartbcnt
                    0x09e4                  scaled_output1
                    0x09e6                  maxpulseduty
                    0x09e8                  minpulseduty
                    0x09ea                  adaptivekp
                    0x09ec                  newpulsefreq
                    0x09f0                  errorrate
                    0x09f4                  num11
                    0x09f6                  num12
                    0x09f8                  ans11
                    0x09fa                  errdaccount
                    0x09fc                  ptosslope
                    0x09fe                  middaccount
                    0x0a00                  lowdaccount
                    0x0a02                  upstep
                    0x0a04                  downstep
                    0x0a06                  newupstep
                    0x0a08                  setparaBkpf
                    0x0a09                  setparaBkif
                    0x0a0a                  setparaBkdf
                    0x0a0b                  setparaPkpf
                    0x0a0c                  setparaPkif
                    0x0a0d                  setparaPkdf
                    0x0a0e                  paraA
                    0x0a0f                  paraB
                    0x0a10                  paraC
                    0x0a11                  dispwirespeed
                    0x0a12                  pweldonf
                    0x0a13                  ploopcnt
                    0x0a14                  transmit2f
                    0x0a15                  baseonf
                    0x0a16                  togglepin
                    0x0a17                  sendoncef
                    0x0a18                  pulsecyclestrt
                    0x0a19                  weldcyclestrt
                    0x0a1a                  prevpulsecycle
                    0x0a1b                  dummypulsecycle
                    0x0a1c                  startstatus1
                    0x0a1d                  recstatus
                    0x0a1e                  recwfstatus
                    0x0a1f                  cvrefon
                    0x0a20                  pulsestrtf
                    0x0a21                  Vweldon_detectf
                    0x0a22                  Aweldon_detectf
                    0x0a23                  openloopf
                    0x0a24                  peakonf
                    0x0a25                  Vweldon
                    0x0a26                  decaycurrent
                    0x0a28                  setbaseamp
                    0x0a2a                  count_100ms
                    0x0a2c                  prevwirespeed1
                    0x0a2e                  micromulti
                    0x0a30                  PID_interval
                    0x0a32                  sckdaccount
                    0x0a34                  psetcurrent
                    0x0a36                  psetvoltage
                    0x0a38                  outputpulsebase
                    0x0a3a                  minbaseamp
                    0x0a3c                  maxbaseamp
                    0x0a3e                  presetcurrent
                    0x0a40                  count4_1ms
                    0x0a42                  DACREF
                    0x0a44                  minbase
                    0x0a46                  maxbase
                    0x0a48                  maxpulsedutyterm
                    0x0a4a                  minpulsedutyterm
                    0x0a4c                  temperror1
                    0x0a4e                  temperror2
                    0x0a50                  wfspeed
                    0x0a52                  presultcur
                    0x0a54                  PCURRENT
                    0x0a56                  padccur
                    0x0a58                  addonbase
                    0x0a5a                  addonbase1
                    0x0a5c                  tx2data
                    0x0a5e                  pmigsetwirespeed
                    0x0a60                  pmigsetvoltage
                    0x0a62                  baseunit
                    0x0a64                  loopcount
                    0x0a66                  loopinterval
                    0x0a68                  count_1sec
                    0x0a6a                  uartdata1
                    0x0a6c                  uartdata2
                    0x0a6e                  MAHESH
                    0x0a70                  microsec
                    0x0a72                  loadpara1
                    0x0a73                  iii
                    0x0a74                  chksum
                    0x0a75                  startptr1
                    0x0a76                  arrptr
                    0x0a77                  recchksum
                    0x0a78                  transmitonf
                    0x0a79                  transonf
                    0x0a7a                  frepidf
                    0x0a7b                  weldcycleon
                    0x0a7c                  ppmigsetwirespeed
                    0x0a7e                  ppmigsetvoltage
                    0x0a80                  basecurcnt
                    0x0a82                  basetime
                    0x0a84                  peakvtg
                    0x0a86                  peakvtgcnt
                    0x0a88                  totalpeakvtg
                    0x0a8a                  startpulsetm
                    0x0a8c                  refbasetm
                    0x0a8e                  pidminbaseamp
                    0x0a90                  temp_pidminbaseamp
                    0x0a92                  pidmaxbaseamp
                    0x0a94                  temp_pidmaxbaseamp
                    0x0a96                  total_pulse_tm
                    0x0a98                  pulsetmfactor
                    0x0a9c                  pulsecurfactor
                    0x0aa0                  pulsefreqfactor
                    0x0aa4                  MAXFBMULTIPLIER
                    0x0aa8                  OPEN_pulsetm
                    0x0aaa                  OPEN_steptm
                    0x0aac                  OPEN_basetm
                    0x0aae                  OPEN_pulserisetm
                    0x0ab0                  OPEN_pulsefalltm
                    0x0ab2                  OPEN_startpulsetm
                    0x0ab4                  OPEN_uppdaccount
                    0x0ab6                  OPEN_pdaccount
                    0x0ab8                  OPEN_sdaccount
                    0x0aba                  OPEN_bdaccount
                    0x0abc                  OPEN_newupstep
                    0x0abe                  OPEN_newdownstep
                    0x0ac0                  sum_setcurrent
                    0x0ac2                  sumdaccount
                    0x0ac4                  PID_pulsetm
                    0x0ac6                  PID_steptm
                    0x0ac8                  PID_basetm
                    0x0aca                  PID_pulserisetm
                    0x0acc                  PID_pulsefalltm
                    0x0ace                  PID_startpulsetm
                    0x0ad0                  PID_uppdaccount
                    0x0ad2                  PID_pdaccount
                    0x0ad4                  PID_sdaccount
                    0x0ad6                  PID_bdaccount
                    0x0ad8                  PID_newupstep
                    0x0ada                  PID_newdownstep
                    0x0adc                  arcforce_amp
                    0x0ade                  FRQ_uppdaccount
                    0x0ae0                  FRQ_pdaccount
                    0x0ae2                  FRQ_sdaccount
                    0x0ae4                  FRQ_bdaccount
                    0x0ae6                  FRQ_newupstep
                    0x0ae8                  FRQ_peakamp
                    0x0aea                  FRQ_stepamp
                    0x0aec                  FRQ_baseamp
                    0x0aee                  tarbasevtg
                    0x0af0                  PFREQ_uppdaccount
                    0x0af2                  PFREQ_pdaccount
                    0x0af4                  PFREQ_sdaccount
                    0x0af6                  PFREQ_bdaccount
                    0x0af8                  PFREQ_newupstep
                    0x0afa                  PFREQ_peakamp
                    0x0afc                  PFREQ_stepamp
                    0x0afe                  PFREQ_baseamp
                    0x0b00                  base_amp_twin_pulse
                    0x0b02                  min_base_amp
                    0x0b04                  max_base_amp
                    0x0b06                  min_freq
                    0x0b08                  max_freq
                    0x0b0a                  step_base
                    0x0b0c                  step_freq
                    0x0b0e                  base_ramp_down_flag
                    0x0b10                  twn_rmp_down_offst_tm
                    0x0b12                  extint1status1
                    0x0b13                  extint2status1
                    0x0b14                  extint1status2
                    0x0b15                  extint2status2
                    0x0b16                  pincheck
                    0x0b17                  ext1ans
                    0x0b18                  ext2ans
                    0x0b19                  count_1ms_ext
                    0x0b1a                  tx2chksum
                    0x0b1b                  starttx2
                    0x0b1c                  tx2counter
                    0x0b1d                  startstatustx2
                    0x0b1e                  tx2statuscounter
                    0x0b1f                  firsttimef
                    0x0b20                  DISPfoot
                    0x0b22                  DISPamp
                    0x0b24                  DISPvtg
                    0x0b26                  DISPerr
                    0x0b28                  SCKamp
                    0x0b2a                  SCKvtg
                    0x0b2c                  SCKerr
                    0x0b2e                  SCKfoot
                    0x0b30                  SCKVOLTAGE
                    0x0b32                  sck_current_ref
                    0x0b34                  temp_mjp
                    0x0b36                  FLTSCKvtg
                    0x0b38                  prevFLTSCKvtg
                    0x0b3a                  disp_newbaseamp
                    0x0b3c                  footref_precent
                    0x0b40                  pulsecycle
                    0x0b41                  oper
                    0x0b42                  displedptr1
                    0x0b43                  displedptr2
                    0x0b44                  ak47
                    0x0b45                  emg_sendf
                    0x0b46                  changestatusf
                    0x0b47                  currentchangef
                    0x0b48                  voltagechangef
                    0x0b49                  OCVON_command
                    0x0b4a                  prev_OCVON_command
                    0x0b4b                  power_on_in_mma
                    0x0b4c                  power_on_in_tig
                    0x0b4d                  T_weldingonf
                    0x0b4e                  M_weldingonf
                    0x0b50                  mili1_100
                    0x0b52                  pluspara1
                    0x0b54                  pluscount1
                    0x0b56                  minuspara1
                    0x0b58                  minuscount1
                    0x0b5a                  pulserisetm
                    0x0b5c                  pulsefalltm
                    0x0b5e                  pulsetm
                    0x0b60                  steptm
                    0x0b62                  basetm
                    0x0b64                  disptemp
                    0x0b66                  disptemp1
                    0x0b68                  decayslope
                    0x0b6c                  linearcnt
                    0x0b70                  decaycnt
                    0x0b74                  decaycount
                    0x0b78                  ptosmslope
                    0x0b7c                  upcnt
                    0x0b80                  tempval
                    0x0b84                  mkf
                    0x0b88                  Adaptive_freq_pidf
                    0x0b89                  keychange1
                    0x0b8a                  keychange2
                    0x0b8c                  newdownstep
                    0x0b8e                  downcnt
                    0x0b90                  baseavgcnt
                    0x0b92                  idecaycount
                    0x0b94                  refstepamp
                    0x0b96                  tpulsetime
                    0x0b98                  pulserisetime
                    0x0b9a                  pulsefalltime
                    0x0b9c                  adtemp
                    0x0ba0                  ECONSTANT
                    0x0ba4                  shiftbvtgf
                    0x0ba5                  weldon_detectf
                    0x0ba6                  SUMBVTGARR
                    0x0ba8                  BCNT
                    0x0baa                  AVGBVTG
                    0x0bac                  weldoncnt
                    0x0bae                  ptigsetcurrent
                    0x0bb0                  ripplecnt
                    0x0bb2                  ripplecurrent
                    0x0bb4                  dispautocurrent
                    0x0bb6                  dispautothickness
                    0x0bb8                  parcforce
                    0x0bba                  testmahe
                    0x0bbc                  parclength
                    0x0bbe                  parcbasevtg
                    0x0bc0                  tempmjp
                    0x0bc2                  refpeakamp
                    0x0bc4                  refpeaktm
                    0x0bc6                  eedata
                    0x0bc8                  RP_BVOLTAGE
                    0x0bca                  bdaccount_rp
                    0x0bcc                  prowno
                    0x0bce                  piii
                    0x0bd0                  piditeration
                    0x0bd2                  piditerationcnt
                    0x0bd4                  pulsepararr
                    0x0be8                  program_number
                    0x0be9                  tungsten_size
                    0x0bea                  disparclen
                    0x0beb                  setrefparaf
                    0x0bec                  ftemp
                    0x0bf0                  fwirespeed
                    0x0bf4                  wirespeed
                    0x0bf6                  current1
                    0x0bf8                  current2
                    0x0bfa                  voltage1
                    0x0bfc                  voltage2
                    0x0bfe                  thickness1
                    0x0c00                  thickness2
                    0x0c02                  Tbasevoltage1
                    0x0c04                  Tbasevoltage2
                    0x0c06                  Tbasevoltage
                    0x0c08                  strttmr
                    0x0c09                  torchval
                    0x0c0a                  dummytorch
                    0x0c0b                  prevpscyclestatus
                    0x0c0c                  prevwfcyclestatus
                    0x0c0d                  torchrelease
                    0x0c0e                  cratersetup
                    0x0c0f                  torchenable
                    0x0c10                  crateron
                    0x0c11                  fastexit
                    0x0c12                  setlcdweldparameter
                    0x0c13                  clearlcdf
                    0x0c14                  vOffsetmax
                    0x0c15                  lcdmigpointer
                    0x0c16                  updatelcdf
                    0x0c17                  lcdscan_flag
                    0x0c18                  point
                    0x0c19                  memoryzone
                    0x0c1a                  AFcnt
                    0x0c1c                  timerval
                    0x0c1e                  cntsecond
                    0x0c20                  voltageref
                    0x0c22                  fttrefvolt
                    0x0c24                  cvoffsetref
                    0x0c26                  prevpreflow
                    0x0c28                  prevburnback
                    0x0c2a                  prevpostflow
                    0x0c2c                  prevcratervoltage
                    0x0c2e                  prevgcraterspeed
                    0x0c30                  prevpulseweldmode
                    0x0c32                  prevtwinpulsefreq
                    0x0c34                  prevtwinpulseduty
                    0x0c36                  prevtwinpulseratio
                    0x0c38                  prev_pcreepspeedrate
                    0x0c3a                  timecount11
                    0x0c3c                  dispnum1
                    0x0c3e                  dispnum2
                    0x0c40                  AFvtg
                    0x0c42                  don
                    0x0c44                  donmin
                    0x0c46                  donmax
                    0x0c48                  prevdon
                    0x0c4a                  max_lcd_cnt
                    0x0c4c                  EE_Stat
                    0x0c4e                  Act_EE_Addr
                    0x0c52                  SAV_TBLPAG
                    0x0c54                  aks
                    0x0c56                  diffpeakvtg
                    0x0c58                  read_tjointtype
                    0x0c5a                  read_gsetcurrent
                    0x0c5c                  read_tpostflow
                    0x0c5e                  pinductance
                    0x0c60                  read_gthickness
                    0x0c62                  newpidstepbasetime
                    0x0c64                  read_ptwinpulseratio
                    0x0c66                  read_pcreepspeedrate
                    0x0c68                  read_ptwinpulseduty
                    0x0c6a                  read_ptwinpulsefreq
                    0x0c6c                  read_ppulseweldmode
                    0x0c6e                  Totalpulsepower
                    0x0c72                  Peakpowerconstant
                    0x0c76                  Steppowerconstant
                    0x0c7a                  Basepowerconstant
                    0x0c7e                  actpvtg
                    0x0c82                  actpcount
                    0x0c86                  pulseoncnt
                    0x0c88                  baseoncnt
                    0x0c8a                  pulserefonf
                    0x0c8b                  baserefonf
                    0x0c8c                  startpcvloop
                    0x0c8e                  sumpulsevoltage
                    0x0c92                  sumbasevoltage
                    0x0c96                  pulsevoltagecnt
                    0x0c98                  basevoltagecnt
                    0x0c9a                  msrpulseoncnt
                    0x0c9c                  msrbaseoncnt
                    0x0c9e                  msrpulsevtg
                    0x0ca0                  msrbasevtg
                    0x0ca2                  avgpulsevtg
                    0x0ca4                  dispavgpulsevtg
                    0x0ca6                  msrbpvtg
                    0x0ca8                  FRQbaseamp
                    0x0caa                  FRQbasevtg
                    0x0cac                  fbavgpulsevtg
                    0x0cae                  prevavgpulsevtg
                    0x0cb0                  FRQ_sckscaled_val
                    0x0cb2                  PFREQ_sckscaled_val
                    0x0cb4                  peaktmfactor
                    0x0cb8                  basetmfactor
                    0x0cbc                  peakvtgpart
                    0x0cc0                  basevtgpart
                    0x0cc4                  PFREQ
                    0x0cc8                  PFREQERR
                    0x0ccc                  tmmsrpulseoncnt
                    0x0cd0                  tmmsrbaseoncnt
                    0x0cd4                  tmpeakvtg
                    0x0cd8                  tmbasevtg
                    0x0cdc                  flttmpeakvtg
                    0x0ce0                  prevtmpeakvtg
                    0x0ce4                  peakvtgarrcnt
                    0x0ce6                  avgpeakvtg
                    0x0ce8                  mpulsevtgcnt
                    0x0cea                  avgmpulsevtg
                    0x0cec                  mpulsevtg
                    0x0cee                  migdaccount
                    0x0cf0                  sum_mpulsevtg
                    0x0cf4                  target_bvtg
                    0x0cf8                  msrpulsevtgf
                    0x0cf9                  power_on_flag
                    0x0cfa                  scale_factor
                    0x0cfc                  integral_old
                    0x0d00                  sf_kpgain
                    0x0d02                  sf_kigain
                    0x0d04                  sf_kdgain
                    0x0d06                  sf_outputmax
                    0x0d0a                  sf_outputmin
                    0x0d0e                  sf_accumulator
                    0x0d12                  sf_pterm
                    0x0d16                  sf_iterm
                    0x0d1a                  sf_dterm
                    0x0d1e                  sf_scalefactor
                    0x0d20                  sf_mig_scalefactor
                    0x0d22                  sf_pidoutput
                    0x0d24                  scaled_sf_pidoutput
                    0x0d26                  lcd_saverecall_ptr
                    0x0d28                  save_location
                    0x0d2a                  Recall_location
                    0x0d2c                  prev_save_location
                    0x0d2e                  prev_Recall_location
                    0x0d30                  mma_tig_error_latch
                    0x0d31                  universal_error_flag
                    0x0d32                  universal_error_latch
                    0x0d33                  UV_errorf
                    0x0d34                  OV_errorf
                    0x0d35                  TH_errorf
                    0x0d36                  HS_errorf
                    0x0d37                  comm_errorf
                    0x0d38                  ERROR_4_errorf
                    0x0d39                  pressure_error_flag
                    0x0d3a                  over_curr_error_flag
                    0x0d3b                  motor_encoder_errorf
                    0x0d3c                  trip_adc_complet_flag
                    0x0d3e                  looperrorvtg
                    0x0d40                  communication_time_out
                    0x0d42                  weld_p_para_latch
                    0x0d43                  setrefparaf_crater
                    0x0d44                  P_crater_current
                    0x0d46                  G_crater_current
                    0x0d48                  prevgcreepspeedrate
                    0x0d4a                  prevhr
                    0x0d4c                  prevmin
                    0x0d4e                  prevsec
                    0x0d50                  arc_on_reset_count
                    0x0d52                  read_pmig_auto0_man1
                    0x0d54                  pmig_auto0_man1
                    0x0d55                  prev_pmig_auto0_man1
                    0x0d56                  password_set_count
                    0x0d58                  password
                    0x0d5a                  passwod_set_flag
                    0x0d5b                  password_protection_enabled
                    0x0d5c                  lcd_update_password
                    0x0d5d                  prev_2t_4t_mode
                    0x0d5e                  prevtpreflow
                    0x0d60                  prevtdownslopetime
                    0x0d62                  prevtendcurrent
                    0x0d64                  prevtpostflowtime
                    0x0d66                  read_tigmodepreflow
                    0x0d68                  tig_twot_fourt
                    0x0d6a                  foot_1_normal_0
                    0x0d6c                  prev_foot_1_normal_0
                    0x0d6e                  tig_pulse1_normal0
                    0x0d70                  prev_tig_pulse1_normal0
                    0x0d72                  read_tigmodestartcurrent
                    0x0d74                  read_tigmodeupslopetime
                    0x0d76                  read_tigdownslopetime
                    0x0d78                  read_tigmodeendcurrent
                    0x0d7a                  read_tigmodepostflow
                    0x0d7c                  read_tig_twot_fourt
                    0x0d7e                  time_100ms
                    0x0d80                  Time_ms
                    0x0d82                  tig4tupslpbrkcurrent
                    0x0d84                  read_foot_1_normal_0
                    0x0d86                  tig_torch_relse_4t
                    0x0d87                  dummytigtorch
                    0x0d88                  tig_ocv_on_flag
                    0x0d89                  torchreleasef
                    0x0d8a                  currerrf
                    0x0d8b                  upslopef
                    0x0d8c                  downslopef
                    0x0d8e                  dVal_torch0
                    0x0d90                  dVal_torch1
                    0x0d92                  tig_weld_cycle_current
                    0x0d94                  usb_0error_1ok
                    0x0d95                  cPonCntr
                    0x0d96                  usb_start_fg
                    0x0d98                  samplecnt
                    0x0d9a                  chkLongkeyPressfg
                    0x0d9c                  short_delay
                    0x0d9e                  short_circuit_cnt_100ms
                    0x0da0                  longKeyPressfg
                    0x0da2                  dValm_torch0
                    0x0da4                  dValm_torch1
                    0x0da6                  fRef_pwm_new
                    0x0daa                  fRef_pwm_new_result
                    0x0dae                  vOffset
                    0x0db0                  expon_lookup

.nbss               0x104c        0x70a
 .nbss              0x104c        0x70a MAIN.o
                    0x1110                  fooPID
                    0x111a                  TypeDP
                    0x111b                  TypeU
                    0x1120                  parau
                    0x1190                  para_tempu
                    0x1200                  pidParams1
                    0x1264                  pidParams2
                    0x12c8                  pstowfstru
                    0x12de                  psstatusu
                    0x12df                  commandu
                    0x12e0                  erroru
                    0x12e2                  wfstatusu
                    0x12e3                  EEPROM_struct_mig
                    0x12e4                  EEPROM_struct_pmig
                    0x12e5                  EEPROM_struct_tig
                    0x12e8                  arcontime
                    0x12ee                  pontime
                    0x12f2                  trans_ps_wf_arr
                    0x130b                  diswin1
                    0x130e                  diswin2
                    0x1311                  arr
                    0x1319                  secondpulse1
                    0x131a                  secondpulse2
                    0x131b                  secondpulse3
                    0x131c                  vtg_circular_arr
                    0x132c                  intki
                    0x132d                  cEditfg
                    0x132e                  kp2_prev
                    0x1336                  ki2_prev
                    0x133e                  kd2_prev
                    0x1346                  kp1_prev
                    0x134e                  ki1_prev
                    0x1356                  kd1_prev
                    0x135e                  kpgamma2
                    0x1362                  kigamma2
                    0x1366                  kdgamma2
                    0x136a                  Kiterm2
                    0x136e                  Kiterm1
                    0x1372                  kpgamma1
                    0x1376                  kigamma1
                    0x137a                  kdgamma1
                    0x137e                  scaled_val2
                    0x1380                  pulsebase_trial
                    0x1382                  rec_arr
                    0x1398                  low_base_amp
                    0x139a                  high_base_amp
                    0x139c                  BVTGARR
                    0x13a4                  dispautovoltage
                    0x13a6                  prevcreepspeedrate
                    0x13a8                  flt
                    0x13aa                  read_mhotstart
                    0x13ac                  read_msetcurrent
                    0x13ae                  read_marcforce
                    0x13b0                  read_mmaterial
                    0x13b2                  read_melectrodesize
                    0x13b4                  read_melectrotype
                    0x13b6                  read_tpreflow
                    0x13b8                  read_tstartcurrent
                    0x13ba                  read_tupslopetime
                    0x13bc                  read_tsetcurrent
                    0x13be                  read_tendcurrent
                    0x13c0                  read_tmaterial
                    0x13c2                  read_tplatesize
                    0x13c4                  read_gpreflow
                    0x13c6                  read_gsetvoltage
                    0x13c8                  read_gcratercurrent
                    0x13ca                  read_gcratervoltage
                    0x13cc                  read_gburnback
                    0x13ce                  read_gsetwspeed
                    0x13d0                  read_gpostflow
                    0x13d2                  read_gmaterial
                    0x13d4                  read_gdiameter
                    0x13d6                  read_ggas
                    0x13d8                  read_inductance
                    0x13da                  read_gcratervoltag
                    0x13dc                  prev_eeprom_mig_struct
                    0x13de                  prev_eeprom_tig_struct
                    0x13e0                  read_ppreflow
                    0x13e2                  read_psetcurrent
                    0x13e4                  read_psetvoltage
                    0x13e6                  read_pcratercurrent
                    0x13e8                  read_pcratervoltage
                    0x13ea                  read_pburnback
                    0x13ec                  read_psetwspeed
                    0x13ee                  read_pthickness
                    0x13f0                  read_parclength
                    0x13f2                  read_ppostflow
                    0x13f4                  read_pmaterial
                    0x13f6                  read_pdiameter
                    0x13f8                  read_pgas
                    0x13fa                  prev_eeprom_pmig_struct
                    0x13fc                  peakvtgarr
                    0x1404                  mpulsevtgarr
                    0x1424                  sf_setpoint
                    0x1426                  sf_feedback
                    0x1428                  sf_error
                    0x142a                  sf_neg_error
                    0x142c                  sf_preverror
                    0x142e                  pidvalue
                    0x1430                  mult_factor
                    0x1432                  Ts
                    0x1434                  fKi
                    0x1438                  fFd
                    0x143c                  sf_pid
                    0x1440                  Testfg
                    0x1442                  Ti
                    0x1446                  max_Pws
                    0x1448                  max_Gws
                    0x144a                  error4_flag
                    0x144b                  error_4_check4t
                    0x144c                  WireFeeder_errorf
                    0x144d                  Motor_OverLoad_errorf
                    0x144e                  Error_flag
                    0x144f                  err_dispfg
                    0x1450                  er1
                    0x1452                  er2
                    0x1454                  er3
                    0x1456                  err11_delay_counter
                    0x1458                  dVal_press1
                    0x145a                  dVal_press0
                    0x145c                  cntsecond_er4
                    0x145e                  prev_arcontimehr
                    0x1460                  prev_arcontimemin
                    0x1462                  set_password
                    0x1464                  temp_password
                    0x1466                  prevtstartcurrent
                    0x1468                  prevtupslopetime
                    0x146a                  pwmresult
                    0x146c                  timerval_1ms
                    0x146e                  footref_I
                    0x1470                  msec10_cntr
                    0x1472                  Upslope_cntr
                    0x1474                  Downslope_cntr
                    0x1476                  UP_Step
                    0x147a                  Down_Step
                    0x147e                  Upcurrent
                    0x1482                  Downcurrent
                    0x1486                  cyclestart
                    0x1487                  TORCH_SW
                    0x1488                  oper_tig
                    0x148a                  first_digits
                    0x148b                  second_digits
                    0x148c                  third_digits
                    0x148d                  fourth_digits
                    0x148e                  iCntChk
                    0x148f                  pon_usb_fg
                    0x1490                  load_data_into_usb_fg
                    0x1491                  HeaderWrfg
                    0x1492                  usbDataLogStartfg
                    0x1493                  setPasswordfg
                    0x1494                  invalid_recall_fg
                    0x1496                  iSecCntr
                    0x1498                  iHeaderdly
                    0x149a                  testmigfg
                    0x149c                  iTest
                    0x149e                  iTestpeak1
                    0x14a0                  iTestpeak2
                    0x14a2                  iTestpeak3
                    0x14a4                  iPrevDacCnt
                    0x14a6                  cSign1
                    0x14a7                  cSign2
                    0x14a8                  cSign3
                    0x14a9                  gasChkfg
                    0x14aa                  tig_ocv_check_f
                    0x14ab                  ocvonfg
                    0x14ac                  weld_short_tig_fg
                    0x14ad                  cCableChkfg
                    0x14ae                  cCableChkCntr
                    0x14af                  cCableErrorfg
                    0x14b0                  cNofbVoltCnt
                    0x14b2                  iWeldcount
                    0x14b4                  ChkForAnotherfg
                    0x14b5                  cErrorNo
                    0x14b6                  cFlashCnt
                    0x14b7                  cFalshMsgfg
                    0x14b8                  cOneSecfg
                    0x14ba                  iFlashCntr
                    0x14bc                  sf_accumulator_new
                    0x14c0                  strRXFramefg
                    0x14c1                  analogFramRxfg
                    0x14c2                  iRXCntr
                    0x14c4                  cPWstarblinkcnt
                    0x14c5                  WfEditfg
                    0x14c6                  fAcc
                    0x14c8                  fPrevError
                    0x14ca                  cAnRemoteFrameArr
                    0x14d4                  cMIGMenumodelockfg
                    0x14d5                  cGasChkMenufg
                    0x14d6                  cStartGasChkcntfg
                    0x14d7                  cTIGMenumodelockfg
                    0x14d8                  ReferenceReadfg
                    0x14da                  iGasChkMenuModecnt
                    0x14dc                  iGAScnt
                    0x14de                  count_gaschk_1ms
                    0x14e0                  iMenuModecnt
                    0x14e2                  count_gas_1sec
                    0x14e4                  iResetcnt1
                    0x14e6                  cMIGMenuMode
                    0x14e7                  cMIGMenuOnfg
                    0x14e8                  cTIGMenuMode
                    0x14e9                  cTIGMenuOnfg
                    0x14ea                  cEncupdatefg
                    0x14eb                  cGaschkDowncntfg
                    0x14ec                  cGASMenuMode
                    0x14ed                  cMMAmenumodelockfg
                    0x14ee                  cMMAMenuMode
                    0x14ef                  cMMAparaupdatefg
                    0x14f0                  keyfoundfg
                    0x14f1                  remotekeyfoundfg
                    0x14f2                  cRemoteCalfg
                    0x14f3                  cArcOnfoundfg
                    0x14f4                  cResetMenufg
                    0x14f6                  iTimeResetSwitchcnt
                    0x14f8                  cRemoteDetectedfg
                    0x14fa                  iRemotecnt
                    0x14fc                  iActualRemotecurr
                    0x14fe                  iRemoteCurrcnt
                    0x1500                  iPrevSetcurrent
                    0x1502                  iPrevDisplaySetcurrent
                    0x1504                  iRemoteCheckcnt
                    0x1506                  fRemoteCheckCurr
                    0x150a                  fRemoteCurr
                    0x150e                  fOffset
                    0x1512                  cMMA_TIG_setcurrentfg
                    0x1513                  cDispFBvtgfg
                    0x1514                  cArcforcefg
                    0x1515                  cHotfg
                    0x1516                  cArcForceTimefg
                    0x1517                  cAntistickfg
                    0x1518                  cFastUpdateFBvtg
                    0x151a                  DISPArcforcevtg
                    0x151c                  ADCARCFVresult
                    0x151e                  iHotstartcount
                    0x1520                  cnt200ms
                    0x1522                  cnt1sec
                    0x1524                  iArcforcecnt
                    0x1526                  iArcforceVtgcnt
                    0x1528                  ARCFORCEVOLTAGE
                    0x152a                  cnt200ms_tig
                    0x152c                  cnt1sec_tig
                    0x152e                  cShortCktfg
                    0x152f                  cDispUpdatefg
                    0x1530                  cMig_arcdetectfg
                    0x1531                  torch
                    0x1532                  cMotorfg
                    0x1533                  cCreepSpeedDowncntfg
                    0x1534                  iMigOffset
                    0x1536                  iMigSlope
                    0x1538                  iDacCnt
                    0x153a                  mig_preflow
                    0x153c                  mig_burnback
                    0x153e                  mig_postflow
                    0x1540                  mig_creepspeedrate
                    0x1542                  mig_Kp
                    0x1544                  mig_Ki
                    0x1546                  mig_Kd
                    0x1548                  mig_Ka
                    0x154a                  mig_Kb
                    0x154c                  mig_Kc
                    0x154e                  iGasCntr
                    0x1550                  iMigWeldPara
                    0x1552                  iTemp
                    0x1554                  iMigWeldPara1
                    0x1556                  iMigWeldPara2
                    0x1558                  iMigWeldPara3
                    0x155a                  iMigWeldPara4
                    0x155c                  iMigWeldPara5
                    0x155e                  iMigWeldPara6
                    0x1560                  igascntr
                    0x1562                  cMigDACref
                    0x1563                  cMigWeldparaupdatefg
                    0x1564                  cSwitchPressfg
                    0x1565                  cSwitchPressfg1
                    0x1566                  cSwitchPressfg2
                    0x1567                  cSwitchPressfg3
                    0x1568                  cSwitchPressfg4
                    0x1569                  cDebounce2
                    0x156a                  iDebounce1
                    0x156c                  iTestcntr
                    0x156e                  iMotorPIDcnt
                    0x1570                  cMIGWeldStartfg
                    0x1572                  iFBmotor_finalvtg
                    0x1574                  iRefmvtg
                    0x1576                  iPrevMotorvtg
                    0x1578                  iResult_motorvtg
                    0x157a                  iFBmvtg
                    0x157c                  iFBMotorvtg
                    0x157e                  Kp
                    0x1580                  Ki
                    0x1582                  Kd
                    0x1584                  Tsampling
                    0x1586                  ReferenceSetpoint
                    0x1588                  FeedbackSetpoint
                    0x158a                  scalefactor
                    0x158c                  error1
                    0x158e                  error_new
                    0x1590                  error_old
                    0x1592                  error_neg
                    0x1594                  integral_new
                    0x1598                  pidoutmax
                    0x159c                  pidoutmin
                    0x15a0                  outmax
                    0x15a2                  outmin
                    0x15a4                  PWM_Ref
                    0x15a6                  DAC_Ref
                    0x15a8                  iMIGParaMenucnt
                    0x15aa                  cPWMLockfg
                    0x15ab                  cTestWSLockfg
                    0x15ac                  cGaSMenufg
                    0x15ad                  cMIGMenufg
                    0x15ae                  cForcefullyOFFOCVfg
                    0x15af                  cLock4TModefg
                    0x15b0                  iPWMClosecnt
                    0x15b2                  iCreepSpeedcnt
                    0x15b4                  iActualWireSpeedcnt
                    0x15b6                  iActualWS
                    0x15b8                  iTest2
                    0x15ba                  scaled_val
                    0x15be                  pidoutput
                    0x15c2                  motor_integral_acc
                    0x15c6                  cCreepEndfg
                    0x15c7                  cUpdate4TModefg
                    0x15c8                  cUpdate2TModefg
                    0x15c9                  cUpdateModefg
                    0x15ca                  cActualWireSpeedfg
                    0x15cb                  c4Tstatus
                    0x15cc                  cCreepDetectafterPreflowfg
                    0x15cd                  cMotorStopfg
                    0x15ce                  cTestMotorStopfg
                    0x15cf                  cTorchStatus
                    0x15d0                  cCreepKifg
                    0x15d1                  cMIGParaMenufg
                    0x15d2                  cMotorStopForENDPulsefg
                    0x15d4                  fCalKp
                    0x15d8                  fCalKi
                    0x15dc                  cCreepLatchfg
                    0x15de                  read_gcreepspeedtime
                    0x15e0                  mig_creepspeedtime
                    0x15e2                  read_iOffset
                    0x15e4                  cDacoutfg
                    0x15e5                  cLockDACreffg
                    0x15e6                  cTestVtgLockfg
                    0x15e8                  iConvertedDACRef
                    0x15ea                  CUrrrent
                    0x15ec                  iCreepSpeedDowncnt
                    0x15ee                  iSlowIncrementWireSpeed
                    0x15f0                  cEnDCurrUpdatefg
                    0x15f1                  cRemoteEnDCurrUpdatefg
                    0x15f2                  iPrevWireSpeed
                    0x15f4                  IRcurr
                    0x15f6                  iWireSpeed
                    0x15f8                  iVoltage
                    0x15fa                  Total_SCKE1result
                    0x15fe                  Total_SCKE2result
                    0x1602                  Total_DISPT1result
                    0x1606                  Total_DISPT2result
                    0x160a                  ADCT1result
                    0x160c                  ADCT2result
                    0x160e                  iTrip1vtg
                    0x1610                  iTrip2vtg
                    0x1612                  DISPT1vtg
                    0x1614                  DISPT2vtg
                    0x1616                  cDispFBcurrfg
                    0x1617                  cWeldondetectfg
                    0x1618                  cWeldonfg
                    0x161a                  iWeldoncnt
                    0x161c                  adc16
                    0x161e                  Channel
                    0x1620                  iACT_CURRENT
                    0x1622                  Total_AvgCurr
                    0x1624                  cSoftStrfg
                    0x1625                  cSoftDonefg
                    0x1626                  cWaitToStopMtrfg
                    0x1628                  cSoftStrCnt
                    0x162a                  iWaitToStopMtrCnt
                    0x162c                  iPrevPidOutput
                    0x162e                  iPidCal
                    0x1630                  iDummyvoltageref
                    0x1632                  cTestfg
                    0x1633                  cStartPulsefg
                    0x1634                  cPulseCnt
                    0x1635                  cStartCCReffg
                    0x1636                  cPIDtriggerfg
                    0x1637                  cTorchPressFoundfg
                    0x1638                  iStartSetVoltCnt
                    0x163a                  iSimpleCnt
                    0x163c                  iStepforStartVoltRef
                    0x163e                  iSoftStrTimecnt
                    0x1640                  iMaxWSLimit
                    0x1642                  cWeldStartfg
                    0x1643                  cSoftStartUSecfg
                    0x1644                  cSoftStrTimefg
                    0x1646                  iStartCurr
                    0x1648                  iEndPulseCurr
                    0x164a                  cLoadFreqfg
                    0x164c                  iLoadFreqCntr
                    0x164e                  cLoadReffg
                    0x164f                  cKeychangefg
                    0x1650                  iLoadRefCntr
                    0x1652                  iPrevRef
                    0x1654                  cFrameSendfg
                    0x1655                  cEndPulsefg
                    0x1656                  cEndPulseCnt
                    0x1657                  cMainScreenfg
                    0x1658                  cCursorPosition
                    0x1659                  cSoftwireDetfg
                    0x165a                  cDispSetCurrUpdatefg
                    0x165b                  cCraterWSUpdatefg
                    0x165c                  cArcforceUpdatefg
                    0x165d                  cCraterVtgUpdatefg
                    0x165e                  cHotstartUpdatefg
                    0x165f                  cInductanceUpdatefg
                    0x1660                  cMigVtgUpdatefg
                    0x1661                  cMIGWSUpdatefg
                    0x1662                  cCurrFBUpdatefg
                    0x1663                  cVtgFBUpdatefg
                    0x1664                  cVRDSwitchfg
                    0x1666                  inch_pwm
                    0x1668                  iSlope
                    0x166a                  iOffset
                    0x166c                  iMMASlope
                    0x166e                  iMMAOffset
                    0x1670                  cCraterLatchfg
                    0x1671                  cInchLatchfg
                    0x1672                  cError4chkfg
                    0x1673                  cGasAndWeldParalockfg
                    0x1674                  cVoltoffMenuMode
                    0x1676                  iTest1
                    0x1678                  MIGCVSLOPE400
                    0x167a                  iVRDSwitchcnt
                    0x167c                  iModeSwitchcnt
                    0x167e                  iVRD_Time
                    0x1680                  cGaschkcntr
                    0x1682                  iGascntr
                    0x1684                  cGaschkfg
                    0x1685                  cGasChkfg
                    0x1686                  gaschkfg
                    0x1687                  cBKeyLockfg
                    0x1688                  iPIDcntrfg
                    0x168a                  fGndRes
                    0x168e                  fGndRes_WF
                    0x1692                  iPIDcntr
                    0x1694                  fSetCurrent
                    0x1698                  fCraterWS
                    0x169c                  fHotStart
                    0x16a0                  fInductance
                    0x16a4                  fArcForce
                    0x16a8                  fCraterVtg
                    0x16ac                  cVRD_fg
                    0x16ad                  cVRDTimerSavefg
                    0x16ae                  cRecordVRDONvtg
                    0x16af                  cMotorTripfg
                    0x16b0                  ivrdcnt
                    0x16b2                  iPrevVRDTime
                    0x16b4                  ivrdcnt1
                    0x16b6                  iActualVRDvtgON
                    0x16b8                  iSampleVRDvtgcnt
                    0x16ba                  VRDTimecnt_1s
                    0x16bc                  iMotorTripcnt_100ms
                    0x16be                  iMotorTripChkcntr
                    0x16c0                  cFlashCntr
                    0x16c2                  count_3s
                    0x16c4                  er4
                    0x16c6                  er5
                    0x16c8                  iTripcnt
                    0x16ca                  iTRIPVTG1
                    0x16cc                  iTRIPVTG2
                    0x16ce                  iRemoteCurr
                    0x16d0                  cFlashfg
                    0x16d1                  NO_ERROR_CONNECTOR_fg
                    0x16d2                  no_display_fg
                    0x16d3                  cAKeyLockfg
                    0x16d4                  cVRDMenufg
                    0x16d5                  cEEPROMSavefg
                    0x16d6                  keyreadfg
                    0x16d7                  cPowerONfg
                    0x16d8                  cFirstTimefg
                    0x16da                  iVRDMenucnt
                    0x16dc                  iPowerONcnt
                    0x16de                  iModeSelcnt
                    0x16e0                  mma_vrd_time
                    0x16e4                  iVRDTimecnt
                    0x16e8                  read_mma_vrd_time
                    0x16ec                  iErr1
                    0x16ee                  iErr2
                    0x16f0                  cModeSelectDonefg
                    0x16f1                  cEnterModelSelectionMenufg
                    0x16f2                  cModel_Select
                    0x16f3                  cMaxFBCurrCalibrationfg
                    0x16f4                  cModelSelectfg
                    0x16f6                  iModelcnt
                    0x16f8                  Moderesult
                    0x16fa                  iModelSelectBand
                    0x16fc                  eedata1
                    0x16fe                  ACT_CVOLTAGE_1
                    0x1700                  AFtestcnt
                    0x1702                  iWireFeeder_error
                    0x1704                  mult_factor_1
                    0x1706                  cEEPROMModelSavefg
                    0x1707                  adctestreadfg
                    0x1708                  cDonefg
                    0x1709                  cVoltageoffsetfg
                    0x170a                  eedata2
                    0x170c                  eedata3
                    0x170e                  eedata4
                    0x1710                  eedata5
                    0x1712                  eedata6
                    0x1714                  eedata7
                    0x1716                  iWS_Min_Count
                    0x1718                  iWS_Max_Count
                    0x171a                  iVTG_Min_Count
                    0x171c                  iVTG_Max_Count
                    0x171e                  iFinal_WS_Count
                    0x1720                  iFinal_VTG_Count
                    0x1722                  iAdccrateriref
                    0x1726                  padccrateriref
                    0x172a                  padccratervref
                    0x172e                  iAdccratervref
                    0x1732                  diff
                    0x1734                  iCraterdisptime
                    0x1736                  cCraterdispfg
                    0x1737                  cMenucnt
                    0x1738                  cVoltageoffsetmenu
                    0x1739                  disp_data_arr
                    0x173e                  mmat
                    0x1740                  mdia
                    0x1742                  melectrode
                    0x1744                  mat
                    0x1746                  dia
                    0x1748                  gas
                    0x174a                  tmat
                    0x174c                  tdia
                    0x174e                  tjoint
                    0x1750                  pmat
                    0x1752                  pdia
                    0x1754                  pgas

.dinit            0x005e50        0x59e
 .dinit           0x005e50        0x59e data_init

.isr              0x0063ee          0x2
 .isr             0x0063ee          0x2 default_isr
                  0x0063ee                  _DefaultInterrupt
